

Microchip MPLAB XC8 Assembler V2.32 build 20210201212658 
                                                                                               Sun Oct 24 15:56:16 2021

Microchip MPLAB XC8 C Compiler v2.32 (Free license) build 20210201212658 Og1 
     1                           	processor	16F877A
     2                           	pagewidth 120
     3                           	opt	flic
     4                           	psect	idataBANK0,global,class=CODE,delta=2,noexec
     5                           	psect	idataBANK1,global,class=CODE,delta=2,noexec
     6                           	psect	nvBANK0,global,class=BANK0,space=1,delta=1,noexec
     7                           	psect	nvBANK1,global,class=BANK1,space=1,delta=1,noexec
     8                           	psect	strings,global,class=STRING,delta=2,noexec
     9                           	psect	stringtext,global,reloc=256,class=STRCODE,delta=2,noexec
    10                           	psect	cinit,global,class=CODE,merge=1,delta=2
    11                           	psect	bssCOMMON,global,class=COMMON,space=1,delta=1,noexec
    12                           	psect	bssBANK0,global,class=BANK0,space=1,delta=1,noexec
    13                           	psect	dataBANK0,global,class=BANK0,space=1,delta=1,noexec
    14                           	psect	bssBANK1,global,class=BANK1,space=1,delta=1,noexec
    15                           	psect	dataBANK1,global,class=BANK1,space=1,delta=1,noexec
    16                           	psect	inittext,global,class=CODE,delta=2
    17                           	psect	cstackBANK1,global,class=BANK1,space=1,delta=1,noexec
    18                           	psect	cstackCOMMON,global,class=COMMON,space=1,delta=1,noexec
    19                           	psect	cstackBANK0,global,class=BANK0,space=1,delta=1,noexec
    20                           	psect	maintext,global,class=CODE,split=1,delta=2
    21                           	psect	text1,local,class=CODE,merge=1,delta=2
    22                           	psect	text2,local,class=CODE,merge=1,delta=2
    23                           	psect	text3,local,class=CODE,merge=1,delta=2
    24                           	psect	text4,local,class=CODE,merge=1,delta=2
    25                           	psect	text5,local,class=CODE,merge=1,delta=2
    26                           	psect	text6,local,class=CODE,merge=1,delta=2
    27                           	psect	text7,local,class=CODE,merge=1,delta=2,group=1
    28                           	psect	text8,local,class=CODE,merge=1,delta=2,group=1
    29                           	psect	text9,local,class=CODE,merge=1,delta=2,group=1
    30                           	psect	text10,local,class=CODE,merge=1,delta=2,group=1
    31                           	psect	text11,local,class=CODE,merge=1,delta=2,group=1
    32                           	psect	text12,local,class=CODE,merge=1,delta=2,group=1
    33                           	psect	text13,local,class=CODE,merge=1,delta=2,group=1
    34                           	psect	text14,local,class=CODE,merge=1,delta=2,group=1
    35                           	psect	text15,local,class=CODE,merge=1,delta=2,group=1
    36                           	psect	text16,local,class=CODE,merge=1,delta=2,group=1
    37                           	psect	text17,local,class=CODE,merge=1,delta=2
    38                           	psect	text18,local,class=CODE,merge=1,delta=2
    39                           	psect	text19,local,class=CODE,merge=1,delta=2
    40                           	psect	text20,local,class=CODE,merge=1,delta=2
    41                           	psect	text21,local,class=CODE,merge=1,delta=2
    42                           	psect	text22,local,class=CODE,merge=1,delta=2
    43                           	psect	text23,local,class=CODE,merge=1,delta=2
    44                           	psect	text24,local,class=CODE,merge=1,delta=2
    45                           	psect	text25,local,class=CODE,merge=1,delta=2
    46                           	psect	text26,local,class=CODE,merge=1,delta=2
    47                           	psect	text27,local,class=CODE,merge=1,delta=2
    48                           	psect	intentry,global,class=CODE,delta=2
    49                           	psect	config,global,abs,ovrld,class=CONFIG,space=4,delta=2,noexec
    50                           	dabs	1,0x7E,2
    51  0000                     
    52                           ; Version 2.20
    53                           ; Generated 12/02/2020 GMT
    54                           ; 
    55                           ; Copyright © 2020, Microchip Technology Inc. and its subsidiaries ("Microchip")
    56                           ; All rights reserved.
    57                           ; 
    58                           ; This software is developed by Microchip Technology Inc. and its subsidiaries ("Microch
      +                          ip").
    59                           ; 
    60                           ; Redistribution and use in source and binary forms, with or without modification, are
    61                           ; permitted provided that the following conditions are met:
    62                           ; 
    63                           ;     1. Redistributions of source code must retain the above copyright notice, this lis
      +                          t of
    64                           ;        conditions and the following disclaimer.
    65                           ; 
    66                           ;     2. Redistributions in binary form must reproduce the above copyright notice, this 
      +                          list
    67                           ;        of conditions and the following disclaimer in the documentation and/or other
    68                           ;        materials provided with the distribution.
    69                           ; 
    70                           ;     3. Microchip's name may not be used to endorse or promote products derived from th
      +                          is
    71                           ;        software without specific prior written permission.
    72                           ; 
    73                           ; THIS SOFTWARE IS PROVIDED BY MICROCHIP "AS IS" AND ANY EXPRESS OR IMPLIED WARRANTIES,
    74                           ; INCLUDING, BUT NOT LIMITED TO, THE IMPLIED WARRANTIES OF MERCHANTABILITY AND FITNESS F
      +                          OR
    75                           ; PURPOSE ARE DISCLAIMED.  IN NO EVENT SHALL MICROCHIP BE LIABLE FOR ANY DIRECT, INDIREC
      +                          T,
    76                           ; INCIDENTAL, SPECIAL, EXEMPLARY, OR CONSEQUENTIAL DAMAGES (INCLUDING BUT NOT LIMITED TO
    77                           ; PROCUREMENT OF SUBSTITUTE GOODS OR SERVICES; LOSS OF USE, DATA OR PROFITS; OR BUSINESS
    78                           ; INTERRUPTION) HOWSOEVER CAUSED AND ON ANY THEORY OF LIABILITY, WHETHER IN CONTRACT, ST
      +                          RICT
    79                           ; LIABILITY, OR TORT (INCLUDING NEGLIGENCE OR OTHERWISE) ARISING IN ANY WAY OUT OF THE U
      +                          SE OF
    80                           ; THIS SOFTWARE, EVEN IF ADVISED OF THE POSSIBILITY OF SUCH DAMAGE.
    81                           ; 
    82                           ; 
    83                           ; Code-generator required, PIC16F877A Definitions
    84                           ; 
    85                           ; SFR Addresses
    86  0000                     	;# 
    87  0001                     	;# 
    88  0002                     	;# 
    89  0003                     	;# 
    90  0004                     	;# 
    91  0005                     	;# 
    92  0006                     	;# 
    93  0007                     	;# 
    94  0008                     	;# 
    95  0009                     	;# 
    96  000A                     	;# 
    97  000B                     	;# 
    98  000C                     	;# 
    99  000D                     	;# 
   100  000E                     	;# 
   101  000E                     	;# 
   102  000F                     	;# 
   103  0010                     	;# 
   104  0011                     	;# 
   105  0012                     	;# 
   106  0013                     	;# 
   107  0014                     	;# 
   108  0015                     	;# 
   109  0015                     	;# 
   110  0016                     	;# 
   111  0017                     	;# 
   112  0018                     	;# 
   113  0019                     	;# 
   114  001A                     	;# 
   115  001B                     	;# 
   116  001B                     	;# 
   117  001C                     	;# 
   118  001D                     	;# 
   119  001E                     	;# 
   120  001F                     	;# 
   121  0081                     	;# 
   122  0085                     	;# 
   123  0086                     	;# 
   124  0087                     	;# 
   125  0088                     	;# 
   126  0089                     	;# 
   127  008C                     	;# 
   128  008D                     	;# 
   129  008E                     	;# 
   130  0091                     	;# 
   131  0092                     	;# 
   132  0093                     	;# 
   133  0094                     	;# 
   134  0098                     	;# 
   135  0099                     	;# 
   136  009C                     	;# 
   137  009D                     	;# 
   138  009E                     	;# 
   139  009F                     	;# 
   140  010C                     	;# 
   141  010D                     	;# 
   142  010E                     	;# 
   143  010F                     	;# 
   144  018C                     	;# 
   145  018D                     	;# 
   146  0000                     	;# 
   147  0001                     	;# 
   148  0002                     	;# 
   149  0003                     	;# 
   150  0004                     	;# 
   151  0005                     	;# 
   152  0006                     	;# 
   153  0007                     	;# 
   154  0008                     	;# 
   155  0009                     	;# 
   156  000A                     	;# 
   157  000B                     	;# 
   158  000C                     	;# 
   159  000D                     	;# 
   160  000E                     	;# 
   161  000E                     	;# 
   162  000F                     	;# 
   163  0010                     	;# 
   164  0011                     	;# 
   165  0012                     	;# 
   166  0013                     	;# 
   167  0014                     	;# 
   168  0015                     	;# 
   169  0015                     	;# 
   170  0016                     	;# 
   171  0017                     	;# 
   172  0018                     	;# 
   173  0019                     	;# 
   174  001A                     	;# 
   175  001B                     	;# 
   176  001B                     	;# 
   177  001C                     	;# 
   178  001D                     	;# 
   179  001E                     	;# 
   180  001F                     	;# 
   181  0081                     	;# 
   182  0085                     	;# 
   183  0086                     	;# 
   184  0087                     	;# 
   185  0088                     	;# 
   186  0089                     	;# 
   187  008C                     	;# 
   188  008D                     	;# 
   189  008E                     	;# 
   190  0091                     	;# 
   191  0092                     	;# 
   192  0093                     	;# 
   193  0094                     	;# 
   194  0098                     	;# 
   195  0099                     	;# 
   196  009C                     	;# 
   197  009D                     	;# 
   198  009E                     	;# 
   199  009F                     	;# 
   200  010C                     	;# 
   201  010D                     	;# 
   202  010E                     	;# 
   203  010F                     	;# 
   204  018C                     	;# 
   205  018D                     	;# 
   206  0000                     	;# 
   207  0001                     	;# 
   208  0002                     	;# 
   209  0003                     	;# 
   210  0004                     	;# 
   211  0005                     	;# 
   212  0006                     	;# 
   213  0007                     	;# 
   214  0008                     	;# 
   215  0009                     	;# 
   216  000A                     	;# 
   217  000B                     	;# 
   218  000C                     	;# 
   219  000D                     	;# 
   220  000E                     	;# 
   221  000E                     	;# 
   222  000F                     	;# 
   223  0010                     	;# 
   224  0011                     	;# 
   225  0012                     	;# 
   226  0013                     	;# 
   227  0014                     	;# 
   228  0015                     	;# 
   229  0015                     	;# 
   230  0016                     	;# 
   231  0017                     	;# 
   232  0018                     	;# 
   233  0019                     	;# 
   234  001A                     	;# 
   235  001B                     	;# 
   236  001B                     	;# 
   237  001C                     	;# 
   238  001D                     	;# 
   239  001E                     	;# 
   240  001F                     	;# 
   241  0081                     	;# 
   242  0085                     	;# 
   243  0086                     	;# 
   244  0087                     	;# 
   245  0088                     	;# 
   246  0089                     	;# 
   247  008C                     	;# 
   248  008D                     	;# 
   249  008E                     	;# 
   250  0091                     	;# 
   251  0092                     	;# 
   252  0093                     	;# 
   253  0094                     	;# 
   254  0098                     	;# 
   255  0099                     	;# 
   256  009C                     	;# 
   257  009D                     	;# 
   258  009E                     	;# 
   259  009F                     	;# 
   260  010C                     	;# 
   261  010D                     	;# 
   262  010E                     	;# 
   263  010F                     	;# 
   264  018C                     	;# 
   265  018D                     	;# 
   266  0000                     	;# 
   267  0001                     	;# 
   268  0002                     	;# 
   269  0003                     	;# 
   270  0004                     	;# 
   271  0005                     	;# 
   272  0006                     	;# 
   273  0007                     	;# 
   274  0008                     	;# 
   275  0009                     	;# 
   276  000A                     	;# 
   277  000B                     	;# 
   278  000C                     	;# 
   279  000D                     	;# 
   280  000E                     	;# 
   281  000E                     	;# 
   282  000F                     	;# 
   283  0010                     	;# 
   284  0011                     	;# 
   285  0012                     	;# 
   286  0013                     	;# 
   287  0014                     	;# 
   288  0015                     	;# 
   289  0015                     	;# 
   290  0016                     	;# 
   291  0017                     	;# 
   292  0018                     	;# 
   293  0019                     	;# 
   294  001A                     	;# 
   295  001B                     	;# 
   296  001B                     	;# 
   297  001C                     	;# 
   298  001D                     	;# 
   299  001E                     	;# 
   300  001F                     	;# 
   301  0081                     	;# 
   302  0085                     	;# 
   303  0086                     	;# 
   304  0087                     	;# 
   305  0088                     	;# 
   306  0089                     	;# 
   307  008C                     	;# 
   308  008D                     	;# 
   309  008E                     	;# 
   310  0091                     	;# 
   311  0092                     	;# 
   312  0093                     	;# 
   313  0094                     	;# 
   314  0098                     	;# 
   315  0099                     	;# 
   316  009C                     	;# 
   317  009D                     	;# 
   318  009E                     	;# 
   319  009F                     	;# 
   320  010C                     	;# 
   321  010D                     	;# 
   322  010E                     	;# 
   323  010F                     	;# 
   324  018C                     	;# 
   325  018D                     	;# 
   326  0000                     	;# 
   327  0001                     	;# 
   328  0002                     	;# 
   329  0003                     	;# 
   330  0004                     	;# 
   331  0005                     	;# 
   332  0006                     	;# 
   333  0007                     	;# 
   334  0008                     	;# 
   335  0009                     	;# 
   336  000A                     	;# 
   337  000B                     	;# 
   338  000C                     	;# 
   339  000D                     	;# 
   340  000E                     	;# 
   341  000E                     	;# 
   342  000F                     	;# 
   343  0010                     	;# 
   344  0011                     	;# 
   345  0012                     	;# 
   346  0013                     	;# 
   347  0014                     	;# 
   348  0015                     	;# 
   349  0015                     	;# 
   350  0016                     	;# 
   351  0017                     	;# 
   352  0018                     	;# 
   353  0019                     	;# 
   354  001A                     	;# 
   355  001B                     	;# 
   356  001B                     	;# 
   357  001C                     	;# 
   358  001D                     	;# 
   359  001E                     	;# 
   360  001F                     	;# 
   361  0081                     	;# 
   362  0085                     	;# 
   363  0086                     	;# 
   364  0087                     	;# 
   365  0088                     	;# 
   366  0089                     	;# 
   367  008C                     	;# 
   368  008D                     	;# 
   369  008E                     	;# 
   370  0091                     	;# 
   371  0092                     	;# 
   372  0093                     	;# 
   373  0094                     	;# 
   374  0098                     	;# 
   375  0099                     	;# 
   376  009C                     	;# 
   377  009D                     	;# 
   378  009E                     	;# 
   379  009F                     	;# 
   380  010C                     	;# 
   381  010D                     	;# 
   382  010E                     	;# 
   383  010F                     	;# 
   384  018C                     	;# 
   385  018D                     	;# 
   386  0000                     	;# 
   387  0001                     	;# 
   388  0002                     	;# 
   389  0003                     	;# 
   390  0004                     	;# 
   391  0005                     	;# 
   392  0006                     	;# 
   393  0007                     	;# 
   394  0008                     	;# 
   395  0009                     	;# 
   396  000A                     	;# 
   397  000B                     	;# 
   398  000C                     	;# 
   399  000D                     	;# 
   400  000E                     	;# 
   401  000E                     	;# 
   402  000F                     	;# 
   403  0010                     	;# 
   404  0011                     	;# 
   405  0012                     	;# 
   406  0013                     	;# 
   407  0014                     	;# 
   408  0015                     	;# 
   409  0015                     	;# 
   410  0016                     	;# 
   411  0017                     	;# 
   412  0018                     	;# 
   413  0019                     	;# 
   414  001A                     	;# 
   415  001B                     	;# 
   416  001B                     	;# 
   417  001C                     	;# 
   418  001D                     	;# 
   419  001E                     	;# 
   420  001F                     	;# 
   421  0081                     	;# 
   422  0085                     	;# 
   423  0086                     	;# 
   424  0087                     	;# 
   425  0088                     	;# 
   426  0089                     	;# 
   427  008C                     	;# 
   428  008D                     	;# 
   429  008E                     	;# 
   430  0091                     	;# 
   431  0092                     	;# 
   432  0093                     	;# 
   433  0094                     	;# 
   434  0098                     	;# 
   435  0099                     	;# 
   436  009C                     	;# 
   437  009D                     	;# 
   438  009E                     	;# 
   439  009F                     	;# 
   440  010C                     	;# 
   441  010D                     	;# 
   442  010E                     	;# 
   443  010F                     	;# 
   444  018C                     	;# 
   445  018D                     	;# 
   446                           
   447                           	psect	idataBANK0
   448  07FB                     __pidataBANK0:
   449                           
   450                           ;initializer for read_digital_keypad@once
   451  07FB  3401               	retlw	1
   452                           
   453                           	psect	idataBANK1
   454  13BA                     __pidataBANK1:
   455                           
   456                           ;initializer for _washing_prog
   457  13BA  3447               	retlw	low (STR_1| (0+32768))
   458  13BB  3491               	retlw	high (STR_1| (0+32768))
   459  13BC  347E               	retlw	low (STR_2| (0+32768))
   460  13BD  3491               	retlw	high (STR_2| (0+32768))
   461  13BE  3417               	retlw	low (STR_3| (0+32768))
   462  13BF  3491               	retlw	high (STR_3| (0+32768))
   463  13C0  3465               	retlw	low (STR_4| (0+32768))
   464  13C1  3491               	retlw	high (STR_4| (0+32768))
   465  13C2  340D               	retlw	low (STR_5| (0+32768))
   466  13C3  3491               	retlw	high (STR_5| (0+32768))
   467  13C4  34E1               	retlw	low (STR_6| (0+32768))
   468  13C5  3490               	retlw	high (STR_6| (0+32768))
   469  13C6  3435               	retlw	low (STR_7| (0+32768))
   470  13C7  3491               	retlw	high (STR_7| (0+32768))
   471  13C8  34F8               	retlw	low (STR_8| (0+32768))
   472  13C9  3490               	retlw	high (STR_8| (0+32768))
   473  13CA  342B               	retlw	low (STR_9| (0+32768))
   474  13CB  3491               	retlw	high (STR_9| (0+32768))
   475  13CC  343E               	retlw	low (STR_10| (0+32768))
   476  13CD  3491               	retlw	high (STR_10| (0+32768))
   477  13CE  3421               	retlw	low (STR_11| (0+32768))
   478  13CF  3491               	retlw	high (STR_11| (0+32768))
   479  13D0  3403               	retlw	low (STR_12| (0+32768))
   480  13D1  3491               	retlw	high (STR_12| (0+32768))
   481                           
   482                           ;initializer for _water_level_arr
   483  13D2  3493               	retlw	low (STR_13| (0+32768))
   484  13D3  3491               	retlw	high (STR_13| (0+32768))
   485  13D4  3498               	retlw	low (STR_14| (0+32768))
   486  13D5  3491               	retlw	high (STR_14| (0+32768))
   487  13D6  345E               	retlw	low (STR_15| (0+32768))
   488  13D7  3491               	retlw	high (STR_15| (0+32768))
   489  13D8  3489               	retlw	low (STR_16| (0+32768))
   490  13D9  3491               	retlw	high (STR_16| (0+32768))
   491  13DA  349C               	retlw	low (STR_17| (0+32768))
   492  13DB  3491               	retlw	high (STR_17| (0+32768))
   493                           
   494                           	psect	nvBANK0
   495  006D                     __pnvBANK0:
   496  006D                     _operation_mode:
   497  006D                     	ds	1
   498                           
   499                           	psect	nvBANK1
   500  00CB                     __pnvBANK1:
   501  00CB                     _reset_mode:
   502  00CB                     	ds	1
   503  0006                     _PORTB	set	6
   504  0008                     _PORTD	set	8
   505  0061                     _TMR2IF	set	97
   506  0091                     _T2CKPS1	set	145
   507  0090                     _T2CKPS0	set	144
   508  0039                     _RC1	set	57
   509  0030                     _RB0	set	48
   510  003A                     _RC2	set	58
   511  0092                     _TMR2ON	set	146
   512  005F                     _GIE	set	95
   513  005E                     _PEIE	set	94
   514  0049                     _RE1	set	73
   515  004A                     _RE2	set	74
   516  0092                     _PR2	set	146
   517  009F                     _ADCON1	set	159
   518  0086                     _TRISB	set	134
   519  0088                     _TRISD	set	136
   520  0461                     _TMR2IE	set	1121
   521  0439                     _TRISC1	set	1081
   522  043A                     _TRISC2	set	1082
   523  0449                     _TRISE1	set	1097
   524  044A                     _TRISE2	set	1098
   525                           
   526                           	psect	strings
   527  11A0                     __pstrings:
   528  11A0                     stringtab:
   529  11A0                     __stringtab:
   530                           
   531                           ;	String table - string pointers are 2 bytes each
   532  11A0  1BFF               	btfsc	btemp+1,7
   533  11A1  29AA               	ljmp	stringcode
   534  11A2  1383               	bcf	3,7
   535  11A3  187F               	btfsc	btemp+1,0
   536  11A4  1783               	bsf	3,7
   537  11A5  0800               	movf	0,w
   538  11A6  0A84               	incf	4,f
   539  11A7  1903               	skipnz
   540  11A8  0AFF               	incf	btemp+1,f
   541  11A9  0008               	return
   542  11AA                     stringcode:
   543  11AA  087F               	movf	btemp+1,w
   544  11AB  397F               	andlw	127
   545  11AC  008A               	movwf	10
   546  11AD  0804               	movf	4,w
   547  11AE  0A84               	incf	4,f
   548  11AF  1903               	skipnz
   549  11B0  0AFF               	incf	btemp+1,f
   550  11B1  0082               	movwf	2
   551  11B2                     __stringbase:
   552  11B2                     __end_of__stringtab:
   553                           
   554                           	psect	stringtext
   555  1000                     __pstringtext:
   556  1000                     STR_19:
   557  1000  3420               	retlw	32	;' '
   558  1001  3420               	retlw	32	;' '
   559  1002  3420               	retlw	32	;' '
   560  1003  3450               	retlw	80	;'P'
   561  1004  344F               	retlw	79	;'O'
   562  1005  3457               	retlw	87	;'W'
   563  1006  3445               	retlw	69	;'E'
   564  1007  3452               	retlw	82	;'R'
   565  1008  3420               	retlw	32	;' '
   566  1009  344F               	retlw	79	;'O'
   567  100A  344E               	retlw	78	;'N'
   568  100B  3420               	retlw	32	;' '
   569  100C  3420               	retlw	32	;' '
   570  100D  3420               	retlw	32	;' '
   571  100E  3420               	retlw	32	;' '
   572  100F  3420               	retlw	32	;' '
   573  1010  3400               	retlw	0
   574  1011                     STR_24:
   575  1011  3420               	retlw	32	;' '
   576  1012  3420               	retlw	32	;' '
   577  1013  3450               	retlw	80	;'P'
   578  1014  344F               	retlw	79	;'O'
   579  1015  3457               	retlw	87	;'W'
   580  1016  3445               	retlw	69	;'E'
   581  1017  3452               	retlw	82	;'R'
   582  1018  3449               	retlw	73	;'I'
   583  1019  344E               	retlw	78	;'N'
   584  101A  3447               	retlw	71	;'G'
   585  101B  3420               	retlw	32	;' '
   586  101C  344F               	retlw	79	;'O'
   587  101D  344E               	retlw	78	;'N'
   588  101E  3420               	retlw	32	;' '
   589  101F  3420               	retlw	32	;' '
   590  1020  3420               	retlw	32	;' '
   591  1021  3400               	retlw	0
   592  1022                     STR_18:
   593  1022  3420               	retlw	32	;' '
   594  1023  3450               	retlw	80	;'P'
   595  1024  3472               	retlw	114	;'r'
   596  1025  3465               	retlw	101	;'e'
   597  1026  3473               	retlw	115	;'s'
   598  1027  3473               	retlw	115	;'s'
   599  1028  3420               	retlw	32	;' '
   600  1029  344B               	retlw	75	;'K'
   601  102A  3465               	retlw	101	;'e'
   602  102B  3479               	retlw	121	;'y'
   603  102C  3420               	retlw	32	;' '
   604  102D  3435               	retlw	53	;'5'
   605  102E  3420               	retlw	32	;' '
   606  102F  3454               	retlw	84	;'T'
   607  1030  344F               	retlw	79	;'O'
   608  1031  3420               	retlw	32	;' '
   609  1032  3400               	retlw	0
   610  1033                     STR_20:
   611  1033  3420               	retlw	32	;' '
   612  1034  3457               	retlw	87	;'W'
   613  1035  3441               	retlw	65	;'A'
   614  1036  3453               	retlw	83	;'S'
   615  1037  3448               	retlw	72	;'H'
   616  1038  3449               	retlw	73	;'I'
   617  1039  344E               	retlw	78	;'N'
   618  103A  3447               	retlw	71	;'G'
   619  103B  3420               	retlw	32	;' '
   620  103C  344D               	retlw	77	;'M'
   621  103D  3441               	retlw	65	;'A'
   622  103E  3443               	retlw	67	;'C'
   623  103F  3448               	retlw	72	;'H'
   624  1040  3449               	retlw	73	;'I'
   625  1041  344E               	retlw	78	;'N'
   626  1042  3445               	retlw	69	;'E'
   627  1043  3400               	retlw	0
   628  1044                     STR_32:
   629  1044  3435               	retlw	53	;'5'
   630  1045  342D               	retlw	45	;'-'
   631  1046  3453               	retlw	83	;'S'
   632  1047  3454               	retlw	84	;'T'
   633  1048  3441               	retlw	65	;'A'
   634  1049  3452               	retlw	82	;'R'
   635  104A  3454               	retlw	84	;'T'
   636  104B  3420               	retlw	32	;' '
   637  104C  3420               	retlw	32	;' '
   638  104D  3436               	retlw	54	;'6'
   639  104E  342D               	retlw	45	;'-'
   640  104F  3450               	retlw	80	;'P'
   641  1050  3441               	retlw	65	;'A'
   642  1051  3455               	retlw	85	;'U'
   643  1052  3453               	retlw	83	;'S'
   644  1053  3445               	retlw	69	;'E'
   645  1054  3400               	retlw	0
   646  1055                     STR_25:
   647  1055  3420               	retlw	32	;' '
   648  1056  3457               	retlw	87	;'W'
   649  1057  3461               	retlw	97	;'a'
   650  1058  3473               	retlw	115	;'s'
   651  1059  3468               	retlw	104	;'h'
   652  105A  3469               	retlw	105	;'i'
   653  105B  346E               	retlw	110	;'n'
   654  105C  3467               	retlw	103	;'g'
   655  105D  3420               	retlw	32	;' '
   656  105E  346D               	retlw	109	;'m'
   657  105F  3461               	retlw	97	;'a'
   658  1060  3463               	retlw	99	;'c'
   659  1061  3468               	retlw	104	;'h'
   660  1062  3469               	retlw	105	;'i'
   661  1063  346E               	retlw	110	;'n'
   662  1064  3465               	retlw	101	;'e'
   663  1065  3400               	retlw	0
   664  1066                     STR_26:
   665  1066  3457               	retlw	87	;'W'
   666  1067  3461               	retlw	97	;'a'
   667  1068  3473               	retlw	115	;'s'
   668  1069  3468               	retlw	104	;'h'
   669  106A  3469               	retlw	105	;'i'
   670  106B  346E               	retlw	110	;'n'
   671  106C  3467               	retlw	103	;'g'
   672  106D  3420               	retlw	32	;' '
   673  106E  3450               	retlw	80	;'P'
   674  106F  3472               	retlw	114	;'r'
   675  1070  346F               	retlw	111	;'o'
   676  1071  3467               	retlw	103	;'g'
   677  1072  3472               	retlw	114	;'r'
   678  1073  3461               	retlw	97	;'a'
   679  1074  346D               	retlw	109	;'m'
   680  1075  3473               	retlw	115	;'s'
   681  1076  3400               	retlw	0
   682  1077                     STR_46:
   683  1077  3450               	retlw	80	;'P'
   684  1078  3472               	retlw	114	;'r'
   685  1079  346F               	retlw	111	;'o'
   686  107A  3467               	retlw	103	;'g'
   687  107B  342E               	retlw	46	;'.'
   688  107C  3420               	retlw	32	;' '
   689  107D  3443               	retlw	67	;'C'
   690  107E  346F               	retlw	111	;'o'
   691  107F  346D               	retlw	109	;'m'
   692  1080  3470               	retlw	112	;'p'
   693  1081  346C               	retlw	108	;'l'
   694  1082  3465               	retlw	101	;'e'
   695  1083  3474               	retlw	116	;'t'
   696  1084  3465               	retlw	101	;'e'
   697  1085  3464               	retlw	100	;'d'
   698  1086  3400               	retlw	0
   699  1087                     STR_47:
   700  1087  3452               	retlw	82	;'R'
   701  1088  3465               	retlw	101	;'e'
   702  1089  346D               	retlw	109	;'m'
   703  108A  346F               	retlw	111	;'o'
   704  108B  3476               	retlw	118	;'v'
   705  108C  3465               	retlw	101	;'e'
   706  108D  3420               	retlw	32	;' '
   707  108E  3443               	retlw	67	;'C'
   708  108F  346C               	retlw	108	;'l'
   709  1090  346F               	retlw	111	;'o'
   710  1091  3474               	retlw	116	;'t'
   711  1092  3468               	retlw	104	;'h'
   712  1093  3473               	retlw	115	;'s'
   713  1094  3400               	retlw	0
   714  1095                     STR_22:
   715  1095  3420               	retlw	32	;' '
   716  1096  3453               	retlw	83	;'S'
   717  1097  3457               	retlw	87	;'W'
   718  1098  3435               	retlw	53	;'5'
   719  1099  343A               	retlw	58	;':'
   720  109A  3420               	retlw	32	;' '
   721  109B  3453               	retlw	83	;'S'
   722  109C  3454               	retlw	84	;'T'
   723  109D  3441               	retlw	65	;'A'
   724  109E  3452               	retlw	82	;'R'
   725  109F  3454               	retlw	84	;'T'
   726  10A0  3420               	retlw	32	;' '
   727  10A1  3400               	retlw	0
   728  10A2                     STR_27:
   729  10A2  3457               	retlw	87	;'W'
   730  10A3  3461               	retlw	97	;'a'
   731  10A4  3474               	retlw	116	;'t'
   732  10A5  3465               	retlw	101	;'e'
   733  10A6  3472               	retlw	114	;'r'
   734  10A7  3420               	retlw	32	;' '
   735  10A8  344C               	retlw	76	;'L'
   736  10A9  3465               	retlw	101	;'e'
   737  10AA  3476               	retlw	118	;'v'
   738  10AB  3465               	retlw	101	;'e'
   739  10AC  346C               	retlw	108	;'l'
   740  10AD  343A               	retlw	58	;':'
   741  10AE  3400               	retlw	0
   742  10AF                     STR_29:
   743  10AF  3450               	retlw	80	;'P'
   744  10B0  346C               	retlw	108	;'l'
   745  10B1  3465               	retlw	101	;'e'
   746  10B2  3461               	retlw	97	;'a'
   747  10B3  3473               	retlw	115	;'s'
   748  10B4  3465               	retlw	101	;'e'
   749  10B5  3420               	retlw	32	;' '
   750  10B6  3443               	retlw	67	;'C'
   751  10B7  346C               	retlw	108	;'l'
   752  10B8  346F               	retlw	111	;'o'
   753  10B9  3473               	retlw	115	;'s'
   754  10BA  3465               	retlw	101	;'e'
   755  10BB  3400               	retlw	0
   756  10BC                     STR_21:
   757  10BC  3450               	retlw	80	;'P'
   758  10BD  3472               	retlw	114	;'r'
   759  10BE  3465               	retlw	101	;'e'
   760  10BF  3473               	retlw	115	;'s'
   761  10C0  3473               	retlw	115	;'s'
   762  10C1  3420               	retlw	32	;' '
   763  10C2  3453               	retlw	83	;'S'
   764  10C3  3477               	retlw	119	;'w'
   765  10C4  3469               	retlw	105	;'i'
   766  10C5  3474               	retlw	116	;'t'
   767  10C6  3463               	retlw	99	;'c'
   768  10C7  3468               	retlw	104	;'h'
   769  10C8  3400               	retlw	0
   770  10C9                     STR_23:
   771  10C9  3420               	retlw	32	;' '
   772  10CA  3453               	retlw	83	;'S'
   773  10CB  3457               	retlw	87	;'W'
   774  10CC  3436               	retlw	54	;'6'
   775  10CD  343A               	retlw	58	;':'
   776  10CE  3420               	retlw	32	;' '
   777  10CF  3453               	retlw	83	;'S'
   778  10D0  3454               	retlw	84	;'T'
   779  10D1  344F               	retlw	79	;'O'
   780  10D2  3450               	retlw	80	;'P'
   781  10D3  3420               	retlw	32	;' '
   782  10D4  3400               	retlw	0
   783  10D5                     STR_28:
   784  10D5  3444               	retlw	68	;'D'
   785  10D6  344F               	retlw	79	;'O'
   786  10D7  344F               	retlw	79	;'O'
   787  10D8  3452               	retlw	82	;'R'
   788  10D9  3420               	retlw	32	;' '
   789  10DA  343A               	retlw	58	;':'
   790  10DB  3420               	retlw	32	;' '
   791  10DC  344F               	retlw	79	;'O'
   792  10DD  3450               	retlw	80	;'P'
   793  10DE  3445               	retlw	69	;'E'
   794  10DF  344E               	retlw	78	;'N'
   795  10E0  3400               	retlw	0
   796  10E1                     STR_6:
   797  10E1  3445               	retlw	69	;'E'
   798  10E2  3463               	retlw	99	;'c'
   799  10E3  346F               	retlw	111	;'o'
   800  10E4  3420               	retlw	32	;' '
   801  10E5  3463               	retlw	99	;'c'
   802  10E6  346F               	retlw	111	;'o'
   803  10E7  3474               	retlw	116	;'t'
   804  10E8  3474               	retlw	116	;'t'
   805  10E9  346F               	retlw	111	;'o'
   806  10EA  346E               	retlw	110	;'n'
   807  10EB  3473               	retlw	115	;'s'
   808  10EC  3400               	retlw	0
   809  10ED                     STR_30:
   810  10ED  3446               	retlw	70	;'F'
   811  10EE  3475               	retlw	117	;'u'
   812  10EF  346E               	retlw	110	;'n'
   813  10F0  3463               	retlw	99	;'c'
   814  10F1  3474               	retlw	116	;'t'
   815  10F2  3469               	retlw	105	;'i'
   816  10F3  346F               	retlw	111	;'o'
   817  10F4  346E               	retlw	110	;'n'
   818  10F5  3420               	retlw	32	;' '
   819  10F6  342D               	retlw	45	;'-'
   820  10F7  3400               	retlw	0
   821  10F8                     STR_8:
   822  10F8  3442               	retlw	66	;'B'
   823  10F9  3465               	retlw	101	;'e'
   824  10FA  3461               	retlw	97	;'a'
   825  10FB  3464               	retlw	100	;'d'
   826  10FC  3473               	retlw	115	;'s'
   827  10FD  3468               	retlw	104	;'h'
   828  10FE  3465               	retlw	101	;'e'
   829  10FF  3465               	retlw	101	;'e'
   830  1100  3474               	retlw	116	;'t'
   831  1101  3473               	retlw	115	;'s'
   832  1102  3400               	retlw	0
   833  1103                     STR_12:
   834  1103  3441               	retlw	65	;'A'
   835  1104  3471               	retlw	113	;'q'
   836  1105  3475               	retlw	117	;'u'
   837  1106  3461               	retlw	97	;'a'
   838  1107  3453               	retlw	83	;'S'
   839  1108  3474               	retlw	116	;'t'
   840  1109  346F               	retlw	111	;'o'
   841  110A  3472               	retlw	114	;'r'
   842  110B  3465               	retlw	101	;'e'
   843  110C  3400               	retlw	0
   844  110D                     STR_5:
   845  110D  3453               	retlw	83	;'S'
   846  110E  3474               	retlw	116	;'t'
   847  110F  3461               	retlw	97	;'a'
   848  1110  3469               	retlw	105	;'i'
   849  1111  346E               	retlw	110	;'n'
   850  1112  3477               	retlw	119	;'w'
   851  1113  3461               	retlw	97	;'a'
   852  1114  3473               	retlw	115	;'s'
   853  1115  3468               	retlw	104	;'h'
   854  1116  3400               	retlw	0
   855  1117                     STR_3:
   856  1117  3444               	retlw	68	;'D'
   857  1118  3465               	retlw	101	;'e'
   858  1119  346C               	retlw	108	;'l'
   859  111A  3469               	retlw	105	;'i'
   860  111B  3463               	retlw	99	;'c'
   861  111C  3461               	retlw	97	;'a'
   862  111D  3474               	retlw	116	;'t'
   863  111E  3465               	retlw	101	;'e'
   864  111F  3473               	retlw	115	;'s'
   865  1120  3400               	retlw	0
   866  1121                     STR_11:
   867  1121  3457               	retlw	87	;'W'
   868  1122  3461               	retlw	97	;'a'
   869  1123  3473               	retlw	115	;'s'
   870  1124  3468               	retlw	104	;'h'
   871  1125  3420               	retlw	32	;' '
   872  1126  346F               	retlw	111	;'o'
   873  1127  346E               	retlw	110	;'n'
   874  1128  346C               	retlw	108	;'l'
   875  1129  3479               	retlw	121	;'y'
   876  112A  3400               	retlw	0
   877  112B                     STR_9:
   878  112B  3452               	retlw	82	;'R'
   879  112C  3469               	retlw	105	;'i'
   880  112D  346E               	retlw	110	;'n'
   881  112E  3473               	retlw	115	;'s'
   882  112F  3465               	retlw	101	;'e'
   883  1130  342B               	retlw	43	;'+'
   884  1131  3444               	retlw	68	;'D'
   885  1132  3472               	retlw	114	;'r'
   886  1133  3479               	retlw	121	;'y'
   887  1134  3400               	retlw	0
   888  1135                     STR_7:
   889  1135  3457               	retlw	87	;'W'
   890  1136  346F               	retlw	111	;'o'
   891  1137  346F               	retlw	111	;'o'
   892  1138  346C               	retlw	108	;'l'
   893  1139  346C               	retlw	108	;'l'
   894  113A  3465               	retlw	101	;'e'
   895  113B  346E               	retlw	110	;'n'
   896  113C  3473               	retlw	115	;'s'
   897  113D  3400               	retlw	0
   898  113E                     STR_10:
   899  113E  3444               	retlw	68	;'D'
   900  113F  3472               	retlw	114	;'r'
   901  1140  3479               	retlw	121	;'y'
   902  1141  3420               	retlw	32	;' '
   903  1142  346F               	retlw	111	;'o'
   904  1143  346E               	retlw	110	;'n'
   905  1144  346C               	retlw	108	;'l'
   906  1145  3479               	retlw	121	;'y'
   907  1146  3400               	retlw	0
   908  1147                     STR_1:
   909  1147  3420               	retlw	32	;' '
   910  1148  3444               	retlw	68	;'D'
   911  1149  3461               	retlw	97	;'a'
   912  114A  3469               	retlw	105	;'i'
   913  114B  346C               	retlw	108	;'l'
   914  114C  3479               	retlw	121	;'y'
   915  114D  3420               	retlw	32	;' '
   916  114E  3400               	retlw	0
   917  114F                     STR_35:
   918  114F  3428               	retlw	40	;'('
   919  1150  344D               	retlw	77	;'M'
   920  1151  344D               	retlw	77	;'M'
   921  1152  343A               	retlw	58	;':'
   922  1153  3453               	retlw	83	;'S'
   923  1154  3453               	retlw	83	;'S'
   924  1155  3429               	retlw	41	;')'
   925  1156  3400               	retlw	0
   926  1157                     STR_33:
   927  1157  3450               	retlw	80	;'P'
   928  1158  3472               	retlw	114	;'r'
   929  1159  346F               	retlw	111	;'o'
   930  115A  3467               	retlw	103	;'g'
   931  115B  343A               	retlw	58	;':'
   932  115C  3420               	retlw	32	;' '
   933  115D  3400               	retlw	0
   934  115E                     STR_15:
   935  115E  344D               	retlw	77	;'M'
   936  115F  3445               	retlw	69	;'E'
   937  1160  3444               	retlw	68	;'D'
   938  1161  3449               	retlw	73	;'I'
   939  1162  3455               	retlw	85	;'U'
   940  1163  344D               	retlw	77	;'M'
   941  1164  3400               	retlw	0
   942  1165                     STR_4:
   943  1165  3457               	retlw	87	;'W'
   944  1166  3468               	retlw	104	;'h'
   945  1167  3469               	retlw	105	;'i'
   946  1168  3474               	retlw	116	;'t'
   947  1169  3465               	retlw	101	;'e'
   948  116A  3473               	retlw	115	;'s'
   949  116B  3400               	retlw	0
   950  116C                     STR_41:
   951  116C  3453               	retlw	83	;'S'
   952  116D  3470               	retlw	112	;'p'
   953  116E  3469               	retlw	105	;'i'
   954  116F  346E               	retlw	110	;'n'
   955  1170  3420               	retlw	32	;' '
   956  1171  3400               	retlw	0
   957  1172                     STR_34:
   958  1172  3454               	retlw	84	;'T'
   959  1173  3469               	retlw	105	;'i'
   960  1174  346D               	retlw	109	;'m'
   961  1175  3465               	retlw	101	;'e'
   962  1176  343A               	retlw	58	;':'
   963  1177  3400               	retlw	0
   964  1178                     STR_40:
   965  1178  3452               	retlw	82	;'R'
   966  1179  3469               	retlw	105	;'i'
   967  117A  346E               	retlw	110	;'n'
   968  117B  3473               	retlw	115	;'s'
   969  117C  3465               	retlw	101	;'e'
   970  117D  3400               	retlw	0
   971  117E                     STR_2:
   972  117E  3448               	retlw	72	;'H'
   973  117F  3465               	retlw	101	;'e'
   974  1180  3461               	retlw	97	;'a'
   975  1181  3476               	retlw	118	;'v'
   976  1182  3479               	retlw	121	;'y'
   977  1183  3400               	retlw	0
   978  1184                     STR_31:
   979  1184  3454               	retlw	84	;'T'
   980  1185  3449               	retlw	73	;'I'
   981  1186  344D               	retlw	77	;'M'
   982  1187  3445               	retlw	69	;'E'
   983  1188  3400               	retlw	0
   984  1189                     STR_16:
   985  1189  3448               	retlw	72	;'H'
   986  118A  3449               	retlw	73	;'I'
   987  118B  3447               	retlw	71	;'G'
   988  118C  3448               	retlw	72	;'H'
   989  118D  3400               	retlw	0
   990  118E                     STR_39:
   991  118E  3457               	retlw	87	;'W'
   992  118F  3461               	retlw	97	;'a'
   993  1190  3473               	retlw	115	;'s'
   994  1191  3468               	retlw	104	;'h'
   995  1192  3400               	retlw	0
   996  1193                     STR_13:
   997  1193  3441               	retlw	65	;'A'
   998  1194  3475               	retlw	117	;'u'
   999  1195  3474               	retlw	116	;'t'
  1000  1196  346F               	retlw	111	;'o'
  1001  1197  3400               	retlw	0
  1002  1198                     STR_14:
  1003  1198  344C               	retlw	76	;'L'
  1004  1199  344F               	retlw	79	;'O'
  1005  119A  3457               	retlw	87	;'W'
  1006  119B  3400               	retlw	0
  1007  119C                     STR_17:
  1008  119C  344D               	retlw	77	;'M'
  1009  119D  3461               	retlw	97	;'a'
  1010  119E  3478               	retlw	120	;'x'
  1011  119F  3400               	retlw	0
  1012  116C                     
  1013                           	psect	cinit
  1014  000F                     start_initialization:	
  1015                           ; #config settings
  1016                           
  1017  000F                     __initialization:
  1018                           
  1019                           ; Initialize objects allocated to BANK1
  1020  000F  1383               	bcf	3,7	;select IRP bank0
  1021  0010  30C2               	movlw	low (__pdataBANK1+34)
  1022  0011  00FD               	movwf	btemp+-1
  1023  0012  3013               	movlw	high __pidataBANK1
  1024  0013  00FE               	movwf	btemp
  1025  0014  30BA               	movlw	low __pidataBANK1
  1026  0015  00FF               	movwf	btemp+1
  1027  0016  30A0               	movlw	low __pdataBANK1
  1028  0017  0084               	movwf	4
  1029  0018  160A  118A  235E  120A  118A  	fcall	init_ram0
  1030                           
  1031                           ; Initialize objects allocated to BANK0
  1032  001D  120A  118A  27FB  120A  118A  	fcall	__pidataBANK0	;fetch initializer
  1033  0022  00EE               	movwf	__pdataBANK0& (0+127)
  1034                           
  1035                           ; Clear objects allocated to BANK1
  1036  0023  1683               	bsf	3,5	;RP0=1, select bank1
  1037  0024  1303               	bcf	3,6	;RP1=0, select bank1
  1038  0025  01C7               	clrf	__pbssBANK1& (0+127)
  1039  0026  01C8               	clrf	(__pbssBANK1+1)& (0+127)
  1040  0027  01C9               	clrf	(__pbssBANK1+2)& (0+127)
  1041  0028  01CA               	clrf	(__pbssBANK1+3)& (0+127)
  1042                           
  1043                           ; Clear objects allocated to BANK0
  1044  0029  1283               	bcf	3,5	;RP0=0, select bank0
  1045  002A  1303               	bcf	3,6	;RP1=0, select bank0
  1046  002B  01E2               	clrf	__pbssBANK0& (0+127)
  1047  002C  01E3               	clrf	(__pbssBANK0+1)& (0+127)
  1048  002D  01E4               	clrf	(__pbssBANK0+2)& (0+127)
  1049  002E  01E5               	clrf	(__pbssBANK0+3)& (0+127)
  1050  002F  01E6               	clrf	(__pbssBANK0+4)& (0+127)
  1051  0030  01E7               	clrf	(__pbssBANK0+5)& (0+127)
  1052  0031  01E8               	clrf	(__pbssBANK0+6)& (0+127)
  1053  0032  01E9               	clrf	(__pbssBANK0+7)& (0+127)
  1054  0033  01EA               	clrf	(__pbssBANK0+8)& (0+127)
  1055  0034  01EB               	clrf	(__pbssBANK0+9)& (0+127)
  1056  0035  01EC               	clrf	(__pbssBANK0+10)& (0+127)
  1057                           
  1058                           ; Clear objects allocated to COMMON
  1059  0036  01F8               	clrf	__pbssCOMMON& (0+127)
  1060  0037  01F9               	clrf	(__pbssCOMMON+1)& (0+127)
  1061  0038  01FA               	clrf	(__pbssCOMMON+2)& (0+127)
  1062  0039                     end_of_initialization:	
  1063                           ;End of C runtime variable initialization code
  1064                           
  1065  0039                     __end_of__initialization:
  1066  0039  0183               	clrf	3
  1067  003A  120A  158A  2C0C   	ljmp	_main	;jump to C main() function
  1068                           
  1069                           	psect	bssCOMMON
  1070  0078                     __pbssCOMMON:
  1071  0078                     _sec:
  1072  0078                     	ds	1
  1073  0079                     _water_level_index:
  1074  0079                     	ds	1
  1075  007A                     _program_no:
  1076  007A                     	ds	1
  1077                           
  1078                           	psect	bssBANK0
  1079  0062                     __pbssBANK0:
  1080  0062                     run_program@time:
  1081  0062                     	ds	2
  1082  0064                     run_program@total_time:
  1083  0064                     	ds	2
  1084  0066                     _rinse_time:
  1085  0066                     	ds	2
  1086  0068                     _wash_time:
  1087  0068                     	ds	2
  1088  006A                     _min:
  1089  006A                     	ds	1
  1090  006B                     read_digital_keypad@longpress:
  1091  006B                     	ds	1
  1092  006C                     read_digital_keypad@pre_key:
  1093  006C                     	ds	1
  1094                           
  1095                           	psect	dataBANK0
  1096  006E                     __pdataBANK0:
  1097  006E                     read_digital_keypad@once:
  1098  006E                     	ds	1
  1099                           
  1100                           	psect	bssBANK1
  1101  00C7                     __pbssBANK1:
  1102  00C7                     isr@count:
  1103  00C7                     	ds	2
  1104  00C9                     _spin_time:
  1105  00C9                     	ds	2
  1106                           
  1107                           	psect	dataBANK1
  1108  00A0                     __pdataBANK1:
  1109  00A0                     _washing_prog:
  1110  00A0                     	ds	24
  1111  00B8                     _water_level_arr:
  1112  00B8                     	ds	10
  1113                           
  1114                           	psect	inittext
  1115  135A                     init_fetch0:	
  1116                           ;	Called with low address in FSR and high address in W
  1117                           
  1118  135A  087E               	movf	btemp,w
  1119  135B  008A               	movwf	10
  1120  135C  087F               	movf	btemp+1,w
  1121  135D  0082               	movwf	2
  1122  135E                     init_ram0:	
  1123                           ;Called with:
  1124                           ;	high address of idata address in btemp 
  1125                           ;	low address of idata address in btemp+1 
  1126                           ;	low address of data in FSR
  1127                           ;	high address + 1 of data in btemp-1
  1128                           
  1129  135E  160A  118A  235A  160A  118A  	fcall	init_fetch0
  1130  1363  0080               	movwf	0
  1131  1364  0A84               	incf	4,f
  1132  1365  0804               	movf	4,w
  1133  1366  067D               	xorwf	btemp+-1,w
  1134  1367  1903               	btfsc	3,2
  1135  1368  3400               	retlw	0
  1136  1369  0AFF               	incf	btemp+1,f
  1137  136A  1903               	btfsc	3,2
  1138  136B  0AFE               	incf	btemp,f
  1139  136C  2B5E               	goto	init_ram0
  1140                           
  1141                           	psect	cstackBANK1
  1142  00C2                     __pcstackBANK1:
  1143  00C2                     main@j:
  1144                           
  1145                           ; 2 bytes @ 0x0
  1146  00C2                     	ds	2
  1147  00C4                     main@j_148:
  1148                           
  1149                           ; 2 bytes @ 0x2
  1150  00C4                     	ds	2
  1151  00C6                     main@key:
  1152                           
  1153                           ; 1 bytes @ 0x4
  1154  00C6                     	ds	1
  1155                           
  1156                           	psect	cstackCOMMON
  1157  0070                     __pcstackCOMMON:
  1158  0070                     ?_init_timer2:
  1159  0070                     ?_clear_screen:	
  1160                           ; 1 bytes @ 0x0
  1161                           
  1162  0070                     ?_power_on_screen:	
  1163                           ; 1 bytes @ 0x0
  1164                           
  1165  0070                     ?_set_time_for_program:	
  1166                           ; 1 bytes @ 0x0
  1167                           
  1168  0070                     ?_washing_programs_display:	
  1169                           ; 1 bytes @ 0x0
  1170                           
  1171  0070                     ?_water_level_display:	
  1172                           ; 1 bytes @ 0x0
  1173                           
  1174  0070                     ?_run_program:	
  1175                           ; 1 bytes @ 0x0
  1176                           
  1177  0070                     ?_init_display_controller:	
  1178                           ; 1 bytes @ 0x0
  1179                           
  1180  0070                     ?_init_clcd:	
  1181                           ; 1 bytes @ 0x0
  1182                           
  1183  0070                     ?_init_digital_keypad:	
  1184                           ; 1 bytes @ 0x0
  1185                           
  1186  0070                     ?_read_digital_keypad:	
  1187                           ; 1 bytes @ 0x0
  1188                           
  1189  0070                     ?_init_config:	
  1190                           ; 1 bytes @ 0x0
  1191                           
  1192  0070                     ?_main:	
  1193                           ; 1 bytes @ 0x0
  1194                           
  1195  0070                     ?_door_status_check:	
  1196                           ; 1 bytes @ 0x0
  1197                           
  1198  0070                     ?_isr:	
  1199                           ; 1 bytes @ 0x0
  1200                           
  1201  0070                     ??_isr:	
  1202                           ; 1 bytes @ 0x0
  1203                           
  1204                           
  1205                           ; 1 bytes @ 0x0
  1206  0070                     	ds	3
  1207  0073                     ??_init_timer2:
  1208  0073                     ??_set_time_for_program:	
  1209                           ; 1 bytes @ 0x3
  1210                           
  1211  0073                     ?_clcd_write:	
  1212                           ; 1 bytes @ 0x3
  1213                           
  1214  0073                     ??_init_digital_keypad:	
  1215                           ; 1 bytes @ 0x3
  1216                           
  1217  0073                     ??_read_digital_keypad:	
  1218                           ; 1 bytes @ 0x3
  1219                           
  1220  0073                     ?__Umul8_16:	
  1221                           ; 1 bytes @ 0x3
  1222                           
  1223  0073                     ?___wmul:	
  1224                           ; 2 bytes @ 0x3
  1225                           
  1226  0073                     ?___awdiv:	
  1227                           ; 2 bytes @ 0x3
  1228                           
  1229  0073                     ?___awmod:	
  1230                           ; 2 bytes @ 0x3
  1231                           
  1232  0073                     ?___xxtofl:	
  1233                           ; 2 bytes @ 0x3
  1234                           
  1235  0073                     clcd_write@mode:	
  1236                           ; 4 bytes @ 0x3
  1237                           
  1238  0073                     ___fladd@signs:	
  1239                           ; 1 bytes @ 0x3
  1240                           
  1241  0073                     __Umul8_16@multiplicand:	
  1242                           ; 1 bytes @ 0x3
  1243                           
  1244  0073                     ___wmul@multiplier:	
  1245                           ; 1 bytes @ 0x3
  1246                           
  1247  0073                     ___awdiv@divisor:	
  1248                           ; 2 bytes @ 0x3
  1249                           
  1250  0073                     ___awmod@divisor:	
  1251                           ; 2 bytes @ 0x3
  1252                           
  1253  0073                     ___xxtofl@val:	
  1254                           ; 2 bytes @ 0x3
  1255                           
  1256                           
  1257                           ; 4 bytes @ 0x3
  1258  0073                     	ds	1
  1259  0074                     ??_clcd_write:
  1260  0074                     read_digital_keypad@mode:	
  1261                           ; 1 bytes @ 0x4
  1262                           
  1263  0074                     ___fladd@aexp:	
  1264                           ; 1 bytes @ 0x4
  1265                           
  1266                           
  1267                           ; 1 bytes @ 0x4
  1268  0074                     	ds	1
  1269  0075                     ??__Umul8_16:
  1270  0075                     ___fladd@bexp:	
  1271                           ; 1 bytes @ 0x5
  1272                           
  1273  0075                     ___wmul@multiplicand:	
  1274                           ; 1 bytes @ 0x5
  1275                           
  1276  0075                     ___awdiv@dividend:	
  1277                           ; 2 bytes @ 0x5
  1278                           
  1279  0075                     ___awmod@dividend:	
  1280                           ; 2 bytes @ 0x5
  1281                           
  1282                           
  1283                           ; 2 bytes @ 0x5
  1284  0075                     	ds	1
  1285  0076                     clcd_write@byte:
  1286  0076                     ___fladd@grs:	
  1287                           ; 1 bytes @ 0x6
  1288                           
  1289                           
  1290                           ; 1 bytes @ 0x6
  1291  0076                     	ds	1
  1292  0077                     ??_clear_screen:
  1293  0077                     ??_init_clcd:	
  1294                           ; 1 bytes @ 0x7
  1295                           
  1296  0077                     ??_clcd_print:	
  1297                           ; 1 bytes @ 0x7
  1298                           
  1299  0077                     ??_init_config:	
  1300                           ; 1 bytes @ 0x7
  1301                           
  1302  0077                     ??___wmul:	
  1303                           ; 1 bytes @ 0x7
  1304                           
  1305  0077                     ??___awdiv:	
  1306                           ; 1 bytes @ 0x7
  1307                           
  1308  0077                     ??___awmod:	
  1309                           ; 1 bytes @ 0x7
  1310                           
  1311  0077                     ??___flsub:	
  1312                           ; 1 bytes @ 0x7
  1313                           
  1314                           
  1315                           ; 1 bytes @ 0x7
  1316  0077                     	ds	1
  1317  0078                     ??_clcd_putch:
  1318                           
  1319                           	psect	cstackBANK0
  1320  0020                     __pcstackBANK0:	
  1321                           ; 1 bytes @ 0x8
  1322                           
  1323  0020                     ??_init_display_controller:
  1324  0020                     ?_clcd_print:	
  1325                           ; 1 bytes @ 0x0
  1326                           
  1327  0020                     ??___xxtofl:	
  1328                           ; 1 bytes @ 0x0
  1329                           
  1330  0020                     ?___fladd:	
  1331                           ; 1 bytes @ 0x0
  1332                           
  1333  0020                     ___awdiv@counter:	
  1334                           ; 4 bytes @ 0x0
  1335                           
  1336  0020                     ___awmod@counter:	
  1337                           ; 1 bytes @ 0x0
  1338                           
  1339  0020                     clcd_print@str:	
  1340                           ; 1 bytes @ 0x0
  1341                           
  1342  0020                     ___wmul@product:	
  1343                           ; 2 bytes @ 0x0
  1344                           
  1345  0020                     __Umul8_16@product:	
  1346                           ; 2 bytes @ 0x0
  1347                           
  1348  0020                     ___fladd@b:	
  1349                           ; 2 bytes @ 0x0
  1350                           
  1351                           
  1352                           ; 4 bytes @ 0x0
  1353  0020                     	ds	1
  1354  0021                     ___awdiv@sign:
  1355  0021                     ___awmod@sign:	
  1356                           ; 1 bytes @ 0x1
  1357                           
  1358                           
  1359                           ; 1 bytes @ 0x1
  1360  0021                     	ds	1
  1361  0022                     clcd_print@addr:
  1362  0022                     ___awdiv@quotient:	
  1363                           ; 1 bytes @ 0x2
  1364                           
  1365  0022                     __Umul8_16@word_mpld:	
  1366                           ; 2 bytes @ 0x2
  1367                           
  1368                           
  1369                           ; 2 bytes @ 0x2
  1370  0022                     	ds	1
  1371  0023                     ??_door_status_check:
  1372                           
  1373                           ; 1 bytes @ 0x3
  1374  0023                     	ds	1
  1375  0024                     ?_clcd_putch:
  1376  0024                     clcd_putch@addr:	
  1377                           ; 1 bytes @ 0x4
  1378                           
  1379  0024                     __Umul8_16@multiplier:	
  1380                           ; 1 bytes @ 0x4
  1381                           
  1382  0024                     ___xxtofl@sign:	
  1383                           ; 1 bytes @ 0x4
  1384                           
  1385  0024                     ___fladd@a:	
  1386                           ; 1 bytes @ 0x4
  1387                           
  1388                           
  1389                           ; 4 bytes @ 0x4
  1390  0024                     	ds	1
  1391  0025                     clcd_putch@data:
  1392  0025                     ___xxtofl@exp:	
  1393                           ; 1 bytes @ 0x5
  1394                           
  1395                           
  1396                           ; 1 bytes @ 0x5
  1397  0025                     	ds	1
  1398  0026                     ??_power_on_screen:
  1399  0026                     ??_washing_programs_display:	
  1400                           ; 1 bytes @ 0x6
  1401                           
  1402  0026                     ??_water_level_display:	
  1403                           ; 1 bytes @ 0x6
  1404                           
  1405  0026                     ___xxtofl@arg:	
  1406                           ; 1 bytes @ 0x6
  1407                           
  1408                           
  1409                           ; 4 bytes @ 0x6
  1410  0026                     	ds	2
  1411  0028                     ??___fladd:
  1412                           
  1413                           ; 1 bytes @ 0x8
  1414  0028                     	ds	1
  1415  0029                     power_on_screen@i:
  1416  0029                     washing_programs_display@key:	
  1417                           ; 1 bytes @ 0x9
  1418                           
  1419  0029                     water_level_display@key:	
  1420                           ; 1 bytes @ 0x9
  1421                           
  1422                           
  1423                           ; 1 bytes @ 0x9
  1424  0029                     	ds	1
  1425  002A                     ?___flmul:
  1426  002A                     power_on_screen@i_158:	
  1427                           ; 4 bytes @ 0xA
  1428                           
  1429  002A                     ___flmul@b:	
  1430                           ; 1 bytes @ 0xA
  1431                           
  1432                           
  1433                           ; 4 bytes @ 0xA
  1434  002A                     	ds	4
  1435  002E                     ___flmul@a:
  1436                           
  1437                           ; 4 bytes @ 0xE
  1438  002E                     	ds	4
  1439  0032                     ??___flmul:
  1440                           
  1441                           ; 1 bytes @ 0x12
  1442  0032                     	ds	5
  1443  0037                     ___flmul@sign:
  1444                           
  1445                           ; 1 bytes @ 0x17
  1446  0037                     	ds	1
  1447  0038                     ___flmul@aexp:
  1448                           
  1449                           ; 1 bytes @ 0x18
  1450  0038                     	ds	1
  1451  0039                     ___flmul@grs:
  1452                           
  1453                           ; 4 bytes @ 0x19
  1454  0039                     	ds	4
  1455  003D                     ___flmul@bexp:
  1456                           
  1457                           ; 1 bytes @ 0x1D
  1458  003D                     	ds	1
  1459  003E                     ___flmul@prod:
  1460                           
  1461                           ; 4 bytes @ 0x1E
  1462  003E                     	ds	4
  1463  0042                     ___flmul@temp:
  1464                           
  1465                           ; 2 bytes @ 0x22
  1466  0042                     	ds	2
  1467  0044                     ?___fltol:
  1468  0044                     ?___flsub:	
  1469                           ; 4 bytes @ 0x24
  1470                           
  1471  0044                     ___fltol@f1:	
  1472                           ; 4 bytes @ 0x24
  1473                           
  1474  0044                     ___flsub@a:	
  1475                           ; 4 bytes @ 0x24
  1476                           
  1477                           
  1478                           ; 4 bytes @ 0x24
  1479  0044                     	ds	4
  1480  0048                     ??___fltol:
  1481  0048                     ___flsub@b:	
  1482                           ; 1 bytes @ 0x28
  1483                           
  1484                           
  1485                           ; 4 bytes @ 0x28
  1486  0048                     	ds	4
  1487  004C                     ?___flge:
  1488  004C                     ___flge@ff1:	
  1489                           ; 1 bit 
  1490                           
  1491                           
  1492                           ; 4 bytes @ 0x2C
  1493  004C                     	ds	1
  1494  004D                     ___fltol@sign1:
  1495                           
  1496                           ; 1 bytes @ 0x2D
  1497  004D                     	ds	1
  1498  004E                     ___fltol@exp1:
  1499                           
  1500                           ; 1 bytes @ 0x2E
  1501  004E                     	ds	2
  1502  0050                     ___flge@ff2:
  1503                           
  1504                           ; 4 bytes @ 0x30
  1505  0050                     	ds	4
  1506  0054                     ??___flge:
  1507                           
  1508                           ; 1 bytes @ 0x34
  1509  0054                     	ds	4
  1510  0058                     ??_run_program:
  1511                           
  1512                           ; 1 bytes @ 0x38
  1513  0058                     	ds	7
  1514  005F                     run_program@key:
  1515                           
  1516                           ; 1 bytes @ 0x3F
  1517  005F                     	ds	1
  1518  0060                     ??_main:
  1519                           
  1520                           ; 1 bytes @ 0x40
  1521  0060                     	ds	2
  1522                           
  1523                           	psect	maintext
  1524  0C0C                     __pmaintext:	
  1525 ;;
  1526 ;;Main: autosize = 0, tempsize = 2, incstack = 0, save=0
  1527 ;;
  1528 ;; *************** function _main *****************
  1529 ;; Defined at:
  1530 ;;		line 37 in file "main.c"
  1531 ;; Parameters:    Size  Location     Type
  1532 ;;		None
  1533 ;; Auto vars:     Size  Location     Type
  1534 ;;  j               2    2[BANK1 ] int 
  1535 ;;  j               2    0[BANK1 ] int 
  1536 ;;  key             1    4[BANK1 ] unsigned char 
  1537 ;;  key_copy        1    0        unsigned char 
  1538 ;; Return value:  Size  Location     Type
  1539 ;;                  1    wreg      void 
  1540 ;; Registers used:
  1541 ;;		wreg, fsr0l, fsr0h, status,2, status,0, btemp+1, pclath, cstack
  1542 ;; Tracked objects:
  1543 ;;		On entry : B00/0
  1544 ;;		On exit  : 0/0
  1545 ;;		Unchanged: 0/0
  1546 ;; Data sizes:     COMMON   BANK0   BANK1   BANK3   BANK2
  1547 ;;      Params:         0       0       0       0       0
  1548 ;;      Locals:         0       0       5       0       0
  1549 ;;      Temps:          0       2       0       0       0
  1550 ;;      Totals:         0       2       5       0       0
  1551 ;;Total ram usage:        7 bytes
  1552 ;; Hardware stack levels required when called: 5
  1553 ;; This function calls:
  1554 ;;		_clcd_print
  1555 ;;		_clear_screen
  1556 ;;		_init_config
  1557 ;;		_power_on_screen
  1558 ;;		_read_digital_keypad
  1559 ;;		_run_program
  1560 ;;		_set_time_for_program
  1561 ;;		_washing_programs_display
  1562 ;;		_water_level_display
  1563 ;; This function is called by:
  1564 ;;		Startup code after reset
  1565 ;; This function uses a non-reentrant model
  1566 ;;
  1567                           
  1568                           
  1569                           ;psect for function _main
  1570  0C0C                     _main:
  1571  0C0C                     l4501:	
  1572                           ;incstack = 0
  1573                           ; Regs used in _main: [wreg-fsr0h+status,2+status,0+btemp+1+pclath+cstack]
  1574                           
  1575  0C0C                     l4503:
  1576                           
  1577                           ;main.c: 39: 
  1578  0C0C  1283               	bcf	3,5	;RP0=0, select bank0
  1579  0C0D  1303               	bcf	3,6	;RP1=0, select bank0
  1580  0C0E  01ED               	clrf	_operation_mode
  1581  0C0F  0AED               	incf	_operation_mode,f
  1582                           
  1583                           ;main.c: 40:     power_on_screen();
  1584  0C10  3010               	movlw	16
  1585  0C11  00E0               	movwf	??_main
  1586  0C12  0860               	movf	??_main,w
  1587  0C13  1683               	bsf	3,5	;RP0=1, select bank1
  1588  0C14  1303               	bcf	3,6	;RP1=0, select bank1
  1589  0C15  00CB               	movwf	_reset_mode^(0+128)
  1590  0C16                     l4505:
  1591                           
  1592                           ;main.c: 41: 
  1593  0C16  160A  118A  2382  120A  158A  	fcall	_init_config
  1594  0C1B                     l4507:
  1595                           
  1596                           ;main.c: 43: 
  1597  0C1B  3022               	movlw	low (STR_18| (0+32768))
  1598  0C1C  1283               	bcf	3,5	;RP0=0, select bank0
  1599  0C1D  1303               	bcf	3,6	;RP1=0, select bank0
  1600  0C1E  00A0               	movwf	clcd_print@str
  1601  0C1F  3090               	movlw	high (STR_18| (0+32768))
  1602  0C20  00A1               	movwf	clcd_print@str+1
  1603  0C21  3080               	movlw	128
  1604  0C22  00E0               	movwf	??_main
  1605  0C23  0860               	movf	??_main,w
  1606  0C24  00A2               	movwf	clcd_print@addr
  1607  0C25  160A  118A  2454  120A  158A  	fcall	_clcd_print
  1608  0C2A                     l4509:
  1609                           
  1610                           ;main.c: 44:     while(1){
  1611  0C2A  3000               	movlw	low (STR_19| (0+32768))
  1612  0C2B  1283               	bcf	3,5	;RP0=0, select bank0
  1613  0C2C  1303               	bcf	3,6	;RP1=0, select bank0
  1614  0C2D  00A0               	movwf	clcd_print@str
  1615  0C2E  3090               	movlw	high (STR_19| (0+32768))
  1616  0C2F  00A1               	movwf	clcd_print@str+1
  1617  0C30  30C0               	movlw	192
  1618  0C31  00E0               	movwf	??_main
  1619  0C32  0860               	movf	??_main,w
  1620  0C33  00A2               	movwf	clcd_print@addr
  1621  0C34  160A  118A  2454  120A  158A  	fcall	_clcd_print
  1622  0C39                     l4511:
  1623                           
  1624                           ;main.c: 45:         key = read_digital_keypad(1);
  1625  0C39  3033               	movlw	low (STR_20| (0+32768))
  1626  0C3A  1283               	bcf	3,5	;RP0=0, select bank0
  1627  0C3B  1303               	bcf	3,6	;RP1=0, select bank0
  1628  0C3C  00A0               	movwf	clcd_print@str
  1629  0C3D  3090               	movlw	high (STR_20| (0+32768))
  1630  0C3E  00A1               	movwf	clcd_print@str+1
  1631  0C3F  3090               	movlw	144
  1632  0C40  00E0               	movwf	??_main
  1633  0C41  0860               	movf	??_main,w
  1634  0C42  00A2               	movwf	clcd_print@addr
  1635  0C43  160A  118A  2454  120A  158A  	fcall	_clcd_print
  1636                           
  1637                           ;main.c: 47:         if(key == 0xB7 && operation_mode == 0x01)
  1638  0C48  2C5D               	goto	l4517
  1639  0C49                     l4513:
  1640                           
  1641                           ;main.c: 48:         {;main.c: 49:             operation_mode = 0x02;
  1642  0C49  30B8               	movlw	184
  1643  0C4A  1683               	bsf	3,5	;RP0=1, select bank1
  1644  0C4B  1303               	bcf	3,6	;RP1=0, select bank1
  1645  0C4C  00C2               	movwf	main@j^(0+128)
  1646  0C4D  300B               	movlw	11
  1647  0C4E  00C3               	movwf	(main@j^(0+128)+1)
  1648  0C4F                     l4515:
  1649  0C4F  30FF               	movlw	255
  1650  0C50  07C2               	addwf	main@j^(0+128),f
  1651  0C51  1803               	skipnc
  1652  0C52  0AC3               	incf	(main@j+1)^(0+128),f
  1653  0C53  30FF               	movlw	255
  1654  0C54  07C3               	addwf	(main@j+1)^(0+128),f
  1655  0C55  0A42               	incf	main@j^(0+128),w
  1656  0C56  1D03               	skipz
  1657  0C57  2C5C               	goto	u5701
  1658  0C58  0A43               	incf	(main@j+1)^(0+128),w
  1659  0C59  1D03               	btfss	3,2
  1660  0C5A  2C5C               	goto	u5701
  1661  0C5B  2C5D               	goto	u5700
  1662  0C5C                     u5701:
  1663  0C5C  2C4F               	goto	l4515
  1664  0C5D                     u5700:
  1665  0C5D                     l4517:
  1666                           
  1667                           ;main.c: 47:         if(key == 0xB7 && operation_mode == 0x01)
  1668  0C5D  3001               	movlw	1
  1669  0C5E  120A  118A  279A  120A  158A  	fcall	_read_digital_keypad
  1670  0C63  3A2F               	xorlw	47
  1671  0C64  1D03               	skipz
  1672  0C65  2C67               	goto	u5711
  1673  0C66  2C68               	goto	u5710
  1674  0C67                     u5711:
  1675  0C67  2C49               	goto	l4513
  1676  0C68                     u5710:
  1677  0C68                     l4519:
  1678                           
  1679                           ;main.c: 52:         {
  1680  0C68  160A  118A  234D  120A  158A  	fcall	_clear_screen
  1681  0C6D                     l4521:
  1682                           
  1683                           ;main.c: 55: 
  1684  0C6D  160A  118A  2570  120A  158A  	fcall	_power_on_screen
  1685  0C72                     l4523:
  1686                           
  1687                           ;main.c: 57: 
  1688  0C72  3010               	movlw	16
  1689  0C73  1283               	bcf	3,5	;RP0=0, select bank0
  1690  0C74  1303               	bcf	3,6	;RP1=0, select bank0
  1691  0C75  00E0               	movwf	??_main
  1692  0C76  0860               	movf	??_main,w
  1693  0C77  1683               	bsf	3,5	;RP0=1, select bank1
  1694  0C78  1303               	bcf	3,6	;RP1=0, select bank1
  1695  0C79  00CB               	movwf	_reset_mode^(0+128)
  1696  0C7A                     l4525:
  1697                           
  1698                           ;main.c: 60:             clcd_print(" SW6: STOP ", (0x90 + 0));
  1699  0C7A  3001               	movlw	1
  1700  0C7B  120A  118A  279A  120A  158A  	fcall	_read_digital_keypad
  1701  0C80  1283               	bcf	3,5	;RP0=0, select bank0
  1702  0C81  1303               	bcf	3,6	;RP1=0, select bank0
  1703  0C82  00E0               	movwf	??_main
  1704  0C83  0860               	movf	??_main,w
  1705  0C84  1683               	bsf	3,5	;RP0=1, select bank1
  1706  0C85  1303               	bcf	3,6	;RP1=0, select bank1
  1707  0C86  00C6               	movwf	main@key^(0+128)
  1708  0C87                     l4527:
  1709                           
  1710                           ;main.c: 61:             operation_mode = 0x03;
  1711  0C87  30B8               	movlw	184
  1712  0C88  00C4               	movwf	main@j_148^(0+128)
  1713  0C89  300B               	movlw	11
  1714  0C8A  00C5               	movwf	(main@j_148^(0+128)+1)
  1715  0C8B                     l4529:
  1716  0C8B  30FF               	movlw	255
  1717  0C8C  07C4               	addwf	main@j_148^(0+128),f
  1718  0C8D  1803               	skipnc
  1719  0C8E  0AC5               	incf	(main@j_148+1)^(0+128),f
  1720  0C8F  30FF               	movlw	255
  1721  0C90  07C5               	addwf	(main@j_148+1)^(0+128),f
  1722  0C91  0A44               	incf	main@j_148^(0+128),w
  1723  0C92  1D03               	skipz
  1724  0C93  2C98               	goto	u5721
  1725  0C94  0A45               	incf	(main@j_148+1)^(0+128),w
  1726  0C95  1D03               	btfss	3,2
  1727  0C96  2C98               	goto	u5721
  1728  0C97  2C99               	goto	u5720
  1729  0C98                     u5721:
  1730  0C98  2C8B               	goto	l4529
  1731  0C99                     u5720:
  1732  0C99                     l4531:
  1733                           
  1734                           ;main.c: 62:         }
  1735  0C99  30B7               	movlw	183
  1736  0C9A  0646               	xorwf	main@key^(0+128),w
  1737  0C9B  1D03               	btfss	3,2
  1738  0C9C  2C9E               	goto	u5731
  1739  0C9D  2C9F               	goto	u5730
  1740  0C9E                     u5731:
  1741  0C9E  2CB1               	goto	l4537
  1742  0C9F                     u5730:
  1743  0C9F                     l4533:
  1744  0C9F  1283               	bcf	3,5	;RP0=0, select bank0
  1745  0CA0  1303               	bcf	3,6	;RP1=0, select bank0
  1746  0CA1  036D               	decf	_operation_mode,w
  1747  0CA2  1D03               	btfss	3,2
  1748  0CA3  2CA5               	goto	u5741
  1749  0CA4  2CA6               	goto	u5740
  1750  0CA5                     u5741:
  1751  0CA5  2CB1               	goto	l4537
  1752  0CA6                     u5740:
  1753  0CA6                     l4535:
  1754                           
  1755                           ;main.c: 63:         else if(key == 0x2F && operation_mode == 0x05);main.c: 64:         
      +                          {
  1756  0CA6  3002               	movlw	2
  1757  0CA7  00E0               	movwf	??_main
  1758  0CA8  0860               	movf	??_main,w
  1759  0CA9  00ED               	movwf	_operation_mode
  1760                           
  1761                           ;main.c: 65:             TMR2ON = 1;
  1762  0CAA  3011               	movlw	17
  1763  0CAB  00E0               	movwf	??_main
  1764  0CAC  0860               	movf	??_main,w
  1765  0CAD  1683               	bsf	3,5	;RP0=1, select bank1
  1766  0CAE  1303               	bcf	3,6	;RP1=0, select bank1
  1767  0CAF  00CB               	movwf	_reset_mode^(0+128)
  1768                           
  1769                           ;main.c: 66:             RC2 = 1;
  1770  0CB0  2D52               	goto	l4581
  1771  0CB1                     l4537:
  1772  0CB1  30B7               	movlw	183
  1773  0CB2  1683               	bsf	3,5	;RP0=1, select bank1
  1774  0CB3  1303               	bcf	3,6	;RP1=0, select bank1
  1775  0CB4  0646               	xorwf	main@key^(0+128),w
  1776  0CB5  1D03               	btfss	3,2
  1777  0CB6  2CB8               	goto	u5751
  1778  0CB7  2CB9               	goto	u5750
  1779  0CB8                     u5751:
  1780  0CB8  2CFF               	goto	l4553
  1781  0CB9                     u5750:
  1782  0CB9                     l4539:
  1783  0CB9  3002               	movlw	2
  1784  0CBA  1283               	bcf	3,5	;RP0=0, select bank0
  1785  0CBB  1303               	bcf	3,6	;RP1=0, select bank0
  1786  0CBC  066D               	xorwf	_operation_mode,w
  1787  0CBD  1D03               	btfss	3,2
  1788  0CBE  2CC0               	goto	u5761
  1789  0CBF  2CC1               	goto	u5760
  1790  0CC0                     u5761:
  1791  0CC0  2CFF               	goto	l4553
  1792  0CC1                     u5760:
  1793  0CC1                     l4541:
  1794                           
  1795                           ;main.c: 67:             operation_mode = 0x04;;main.c: 69: 
  1796  0CC1  120A  158A  22C3  120A  158A  	fcall	_set_time_for_program
  1797  0CC6                     l4543:
  1798                           
  1799                           ;main.c: 71:         {
  1800  0CC6  160A  118A  234D  120A  158A  	fcall	_clear_screen
  1801  0CCB                     l4545:
  1802                           
  1803                           ;main.c: 73:                  washing_programs_display(key);
  1804  0CCB  30BC               	movlw	low (STR_21| (0+32768))
  1805  0CCC  1283               	bcf	3,5	;RP0=0, select bank0
  1806  0CCD  1303               	bcf	3,6	;RP1=0, select bank0
  1807  0CCE  00A0               	movwf	clcd_print@str
  1808  0CCF  3090               	movlw	high (STR_21| (0+32768))
  1809  0CD0  00A1               	movwf	clcd_print@str+1
  1810  0CD1  3080               	movlw	128
  1811  0CD2  00E0               	movwf	??_main
  1812  0CD3  0860               	movf	??_main,w
  1813  0CD4  00A2               	movwf	clcd_print@addr
  1814  0CD5  160A  118A  2454  120A  158A  	fcall	_clcd_print
  1815  0CDA                     l4547:
  1816                           
  1817                           ;main.c: 74:                  break;
  1818  0CDA  3095               	movlw	low (STR_22| (0+32768))
  1819  0CDB  1283               	bcf	3,5	;RP0=0, select bank0
  1820  0CDC  1303               	bcf	3,6	;RP1=0, select bank0
  1821  0CDD  00A0               	movwf	clcd_print@str
  1822  0CDE  3090               	movlw	high (STR_22| (0+32768))
  1823  0CDF  00A1               	movwf	clcd_print@str+1
  1824  0CE0  30C0               	movlw	192
  1825  0CE1  00E0               	movwf	??_main
  1826  0CE2  0860               	movf	??_main,w
  1827  0CE3  00A2               	movwf	clcd_print@addr
  1828  0CE4  160A  118A  2454  120A  158A  	fcall	_clcd_print
  1829  0CE9                     l4549:
  1830                           
  1831                           ;main.c: 75:             case 0x02:
  1832  0CE9  30C9               	movlw	low (STR_23| (0+32768))
  1833  0CEA  1283               	bcf	3,5	;RP0=0, select bank0
  1834  0CEB  1303               	bcf	3,6	;RP1=0, select bank0
  1835  0CEC  00A0               	movwf	clcd_print@str
  1836  0CED  3090               	movlw	high (STR_23| (0+32768))
  1837  0CEE  00A1               	movwf	clcd_print@str+1
  1838  0CEF  3090               	movlw	144
  1839  0CF0  00E0               	movwf	??_main
  1840  0CF1  0860               	movf	??_main,w
  1841  0CF2  00A2               	movwf	clcd_print@addr
  1842  0CF3  160A  118A  2454  120A  158A  	fcall	_clcd_print
  1843  0CF8                     l4551:
  1844                           
  1845                           ;main.c: 76:                 water_level_display(key);
  1846  0CF8  3003               	movlw	3
  1847  0CF9  1283               	bcf	3,5	;RP0=0, select bank0
  1848  0CFA  1303               	bcf	3,6	;RP1=0, select bank0
  1849  0CFB  00E0               	movwf	??_main
  1850  0CFC  0860               	movf	??_main,w
  1851  0CFD  00ED               	movwf	_operation_mode
  1852                           
  1853                           ;main.c: 77:                 break;
  1854  0CFE  2D52               	goto	l4581
  1855  0CFF                     l4553:
  1856  0CFF  302F               	movlw	47
  1857  0D00  1683               	bsf	3,5	;RP0=1, select bank1
  1858  0D01  1303               	bcf	3,6	;RP1=0, select bank1
  1859  0D02  0646               	xorwf	main@key^(0+128),w
  1860  0D03  1D03               	btfss	3,2
  1861  0D04  2D06               	goto	u5771
  1862  0D05  2D07               	goto	u5770
  1863  0D06                     u5771:
  1864  0D06  2D16               	goto	l145
  1865  0D07                     u5770:
  1866  0D07                     l4555:
  1867  0D07  3005               	movlw	5
  1868  0D08  1283               	bcf	3,5	;RP0=0, select bank0
  1869  0D09  1303               	bcf	3,6	;RP1=0, select bank0
  1870  0D0A  066D               	xorwf	_operation_mode,w
  1871  0D0B  1D03               	btfss	3,2
  1872  0D0C  2D0E               	goto	u5781
  1873  0D0D  2D0F               	goto	u5780
  1874  0D0E                     u5781:
  1875  0D0E  2D16               	goto	l145
  1876  0D0F                     u5780:
  1877  0D0F                     l4557:
  1878                           
  1879                           ;main.c: 79:                 if(key==0x2F){;main.c: 80:                     operation_mo
      +                          de=0x04;
  1880  0D0F  1512               	bsf	18,2	;volatile
  1881                           
  1882                           ;main.c: 81:                     reset_mode = 0x12;
  1883  0D10  1507               	bsf	7,2	;volatile
  1884  0D11                     l4559:
  1885                           
  1886                           ;main.c: 82:                     continue;
  1887  0D11  3004               	movlw	4
  1888  0D12  00E0               	movwf	??_main
  1889  0D13  0860               	movf	??_main,w
  1890  0D14  00ED               	movwf	_operation_mode
  1891  0D15  2D52               	goto	l4581
  1892  0D16                     l145:
  1893                           
  1894                           ;main.c: 85:                     reset_mode = 0x10;
  1895  0D16  2D52               	goto	l4581
  1896  0D17                     l4561:
  1897                           
  1898                           ;main.c: 88:                 }
  1899  0D17  1683               	bsf	3,5	;RP0=1, select bank1
  1900  0D18  1303               	bcf	3,6	;RP1=0, select bank1
  1901  0D19  0846               	movf	main@key^(0+128),w
  1902  0D1A  120A  158A  207F  120A  158A  	fcall	_washing_programs_display
  1903                           
  1904                           ;main.c: 89:                 break;
  1905  0D1F  2D69               	goto	l4583
  1906  0D20                     l4563:
  1907                           
  1908                           ;main.c: 91:                 run_program(key);
  1909  0D20  1683               	bsf	3,5	;RP0=1, select bank1
  1910  0D21  1303               	bcf	3,6	;RP1=0, select bank1
  1911  0D22  0846               	movf	main@key^(0+128),w
  1912  0D23  120A  158A  21A1  120A  158A  	fcall	_water_level_display
  1913                           
  1914                           ;main.c: 92:                 break;
  1915  0D28  2D69               	goto	l4583
  1916  0D29                     l4565:
  1917                           
  1918                           ;main.c: 94:         reset_mode = 0x00;
  1919  0D29  302F               	movlw	47
  1920  0D2A  1683               	bsf	3,5	;RP0=1, select bank1
  1921  0D2B  1303               	bcf	3,6	;RP1=0, select bank1
  1922  0D2C  0646               	xorwf	main@key^(0+128),w
  1923  0D2D  1D03               	btfss	3,2
  1924  0D2E  2D30               	goto	u5791
  1925  0D2F  2D31               	goto	u5790
  1926  0D30                     u5791:
  1927  0D30  2D3E               	goto	l4571
  1928  0D31                     u5790:
  1929  0D31                     l4567:
  1930                           
  1931                           ;main.c: 95:     }
  1932  0D31  3004               	movlw	4
  1933  0D32  1283               	bcf	3,5	;RP0=0, select bank0
  1934  0D33  1303               	bcf	3,6	;RP1=0, select bank0
  1935  0D34  00E0               	movwf	??_main
  1936  0D35  0860               	movf	??_main,w
  1937  0D36  00ED               	movwf	_operation_mode
  1938                           
  1939                           ;main.c: 96: 
  1940  0D37  3012               	movlw	18
  1941  0D38  00E0               	movwf	??_main
  1942  0D39  0860               	movf	??_main,w
  1943  0D3A  1683               	bsf	3,5	;RP0=1, select bank1
  1944  0D3B  1303               	bcf	3,6	;RP1=0, select bank1
  1945  0D3C  00CB               	movwf	_reset_mode^(0+128)
  1946                           
  1947                           ;main.c: 97: }
  1948  0D3D  2C7A               	goto	l4525
  1949  0D3E                     l4571:
  1950  0D3E  301F               	movlw	31
  1951  0D3F  0646               	xorwf	main@key^(0+128),w
  1952  0D40  1D03               	btfss	3,2
  1953  0D41  2D43               	goto	u5801
  1954  0D42  2D44               	goto	u5800
  1955  0D43                     u5801:
  1956  0D43  2D69               	goto	l4583
  1957  0D44                     u5800:
  1958  0D44                     l4573:
  1959                           
  1960                           ;main.c: 99: void clear_screen(void)
  1961  0D44  1283               	bcf	3,5	;RP0=0, select bank0
  1962  0D45  1303               	bcf	3,6	;RP1=0, select bank0
  1963  0D46  01ED               	clrf	_operation_mode
  1964  0D47  0AED               	incf	_operation_mode,f
  1965  0D48  2C72               	goto	l4523
  1966  0D49                     l4577:
  1967                           
  1968                           ;main.c: 106: void power_on_screen(void)
  1969  0D49  1683               	bsf	3,5	;RP0=1, select bank1
  1970  0D4A  1303               	bcf	3,6	;RP1=0, select bank1
  1971  0D4B  0846               	movf	main@key^(0+128),w
  1972  0D4C  120A  118A  203D  120A  158A  	fcall	_run_program
  1973                           
  1974                           ;main.c: 107: {
  1975  0D51  2D69               	goto	l4583
  1976  0D52                     l4581:
  1977  0D52  1283               	bcf	3,5	;RP0=0, select bank0
  1978  0D53  086D               	movf	_operation_mode,w
  1979  0D54  00E0               	movwf	??_main
  1980  0D55  01E1               	clrf	??_main+1
  1981                           
  1982                           ; Switch on 2 bytes has been partitioned into a top level switch of size 1, and 1 sub-sw
      +                          itches
  1983                           ; Switch size 1, requested type "simple"
  1984                           ; Number of cases is 1, Range of values is 0 to 0
  1985                           ; switch strategies available:
  1986                           ; Name         Instructions Cycles
  1987                           ; simple_byte            4     3 (average)
  1988                           ; direct_byte           11     8 (fixed)
  1989                           ; jumptable            260     6 (fixed)
  1990                           ;	Chosen strategy is simple_byte
  1991  0D56  0861               	movf	??_main+1,w
  1992  0D57  3A00               	xorlw	0	; case 0
  1993  0D58  1903               	skipnz
  1994  0D59  2D5B               	goto	l4761
  1995  0D5A  2D69               	goto	l4583
  1996  0D5B                     l4761:
  1997                           
  1998                           ; Switch size 1, requested type "simple"
  1999                           ; Number of cases is 4, Range of values is 1 to 4
  2000                           ; switch strategies available:
  2001                           ; Name         Instructions Cycles
  2002                           ; simple_byte           13     7 (average)
  2003                           ; direct_byte           23    11 (fixed)
  2004                           ; jumptable            263     9 (fixed)
  2005                           ;	Chosen strategy is simple_byte
  2006  0D5B  0860               	movf	??_main,w
  2007  0D5C  3A01               	xorlw	1	; case 1
  2008  0D5D  1903               	skipnz
  2009  0D5E  2D17               	goto	l4561
  2010  0D5F  3A03               	xorlw	3	; case 2
  2011  0D60  1903               	skipnz
  2012  0D61  2D20               	goto	l4563
  2013  0D62  3A01               	xorlw	1	; case 3
  2014  0D63  1903               	skipnz
  2015  0D64  2D29               	goto	l4565
  2016  0D65  3A07               	xorlw	7	; case 4
  2017  0D66  1903               	skipnz
  2018  0D67  2D49               	goto	l4577
  2019  0D68  2D69               	goto	l4583
  2020  0D69                     l4583:
  2021                           
  2022                           ;main.c: 109:     {
  2023  0D69  1683               	bsf	3,5	;RP0=1, select bank1
  2024  0D6A  1303               	bcf	3,6	;RP1=0, select bank1
  2025  0D6B  01CB               	clrf	_reset_mode^(0+128)
  2026  0D6C  2C7A               	goto	l4525
  2027  0D6D  120A  118A  280C   	ljmp	start
  2028  0D70                     __end_of_main:
  2029                           
  2030                           	psect	text1
  2031  09A1                     __ptext1:	
  2032 ;; *************** function _water_level_display *****************
  2033 ;; Defined at:
  2034 ;;		line 175 in file "main.c"
  2035 ;; Parameters:    Size  Location     Type
  2036 ;;  key             1    wreg     unsigned char 
  2037 ;; Auto vars:     Size  Location     Type
  2038 ;;  key             1    9[BANK0 ] unsigned char 
  2039 ;; Return value:  Size  Location     Type
  2040 ;;                  1    wreg      void 
  2041 ;; Registers used:
  2042 ;;		wreg, fsr0l, fsr0h, status,2, status,0, btemp+1, pclath, cstack
  2043 ;; Tracked objects:
  2044 ;;		On entry : 0/0
  2045 ;;		On exit  : 0/0
  2046 ;;		Unchanged: 0/0
  2047 ;; Data sizes:     COMMON   BANK0   BANK1   BANK3   BANK2
  2048 ;;      Params:         0       0       0       0       0
  2049 ;;      Locals:         0       1       0       0       0
  2050 ;;      Temps:          0       3       0       0       0
  2051 ;;      Totals:         0       4       0       0       0
  2052 ;;Total ram usage:        4 bytes
  2053 ;; Hardware stack levels used: 1
  2054 ;; Hardware stack levels required when called: 3
  2055 ;; This function calls:
  2056 ;;		_clcd_print
  2057 ;;		_clcd_putch
  2058 ;;		_clear_screen
  2059 ;; This function is called by:
  2060 ;;		_main
  2061 ;; This function uses a non-reentrant model
  2062 ;;
  2063                           
  2064                           
  2065                           ;psect for function _water_level_display
  2066  09A1                     _water_level_display:
  2067                           
  2068                           ;incstack = 0
  2069                           ; Regs used in _water_level_display: [wreg-fsr0h+status,2+status,0+btemp+1+pclath+cstack
      +                          ]
  2070                           ;water_level_display@key stored from wreg
  2071  09A1  1283               	bcf	3,5	;RP0=0, select bank0
  2072  09A2  1303               	bcf	3,6	;RP1=0, select bank0
  2073  09A3  00A9               	movwf	water_level_display@key
  2074  09A4                     l4363:
  2075                           
  2076                           ;main.c: 175:     };main.c: 176:     clcd_print("Water Level:",(0x80 + 0));;main.c: 177:
      +                               clcd_putch('*',(0xC0 + 0));
  2077  09A4  3011               	movlw	17
  2078  09A5  1683               	bsf	3,5	;RP0=1, select bank1
  2079  09A6  1303               	bcf	3,6	;RP1=0, select bank1
  2080  09A7  064B               	xorwf	_reset_mode^(0+128),w
  2081  09A8  1D03               	btfss	3,2
  2082  09A9  29AB               	goto	u5541
  2083  09AA  29AC               	goto	u5540
  2084  09AB                     u5541:
  2085  09AB  29B2               	goto	l4369
  2086  09AC                     u5540:
  2087  09AC                     l4365:
  2088                           
  2089                           ;main.c: 178:     if(water_level_index <=2);main.c: 179:     {
  2090  09AC  01F9               	clrf	_water_level_index
  2091  09AD                     l4367:
  2092                           
  2093                           ;main.c: 180:      clcd_print(water_level_arr[water_level_index], (0xC0 + 2));
  2094  09AD  160A  118A  234D  120A  158A  	fcall	_clear_screen
  2095  09B2                     l4369:
  2096                           
  2097                           ;main.c: 182:     clcd_print(water_level_arr[water_level_index + 2], (0xD0 + 2));
  2098  09B2  3037               	movlw	55
  2099  09B3  1283               	bcf	3,5	;RP0=0, select bank0
  2100  09B4  1303               	bcf	3,6	;RP1=0, select bank0
  2101  09B5  0629               	xorwf	water_level_display@key,w
  2102  09B6  1D03               	btfss	3,2
  2103  09B7  29B9               	goto	u5551
  2104  09B8  29BA               	goto	u5550
  2105  09B9                     u5551:
  2106  09B9  29CA               	goto	l4377
  2107  09BA                     u5550:
  2108  09BA                     l4371:
  2109                           
  2110                           ;main.c: 183: };main.c: 184:     else if(water_level_index == 3)
  2111  09BA  3001               	movlw	1
  2112  09BB  00A6               	movwf	??_water_level_display
  2113  09BC  0826               	movf	??_water_level_display,w
  2114  09BD  07F9               	addwf	_water_level_index,f
  2115                           
  2116                           ;main.c: 185:     {
  2117  09BE  3005               	movlw	5
  2118  09BF  0679               	xorwf	_water_level_index,w
  2119  09C0  1D03               	btfss	3,2
  2120  09C1  29C3               	goto	u5561
  2121  09C2  29C4               	goto	u5560
  2122  09C3                     u5561:
  2123  09C3  29C5               	goto	l4375
  2124  09C4                     u5560:
  2125  09C4                     l4373:
  2126                           
  2127                           ;main.c: 186:     clcd_print(water_level_arr[water_level_index], (0xC0 + 2));;main.c: 18
      +                          7:     clcd_print(water_level_arr[water_level_index +1], (0x90 + 2));
  2128  09C4  01F9               	clrf	_water_level_index
  2129  09C5                     l4375:
  2130                           
  2131                           ;main.c: 189: 
  2132  09C5  160A  118A  234D  120A  158A  	fcall	_clear_screen
  2133  09CA                     l4377:
  2134                           
  2135                           ;main.c: 191:     else if(water_level_index == 4)
  2136  09CA  30A2               	movlw	low (STR_27| (0+32768))
  2137  09CB  1283               	bcf	3,5	;RP0=0, select bank0
  2138  09CC  1303               	bcf	3,6	;RP1=0, select bank0
  2139  09CD  00A0               	movwf	clcd_print@str
  2140  09CE  3090               	movlw	high (STR_27| (0+32768))
  2141  09CF  00A1               	movwf	clcd_print@str+1
  2142  09D0  3080               	movlw	128
  2143  09D1  00A6               	movwf	??_water_level_display
  2144  09D2  0826               	movf	??_water_level_display,w
  2145  09D3  00A2               	movwf	clcd_print@addr
  2146  09D4  160A  118A  2454  120A  158A  	fcall	_clcd_print
  2147  09D9                     l4379:
  2148                           
  2149                           ;main.c: 192:     {
  2150  09D9  30C0               	movlw	192
  2151  09DA  1283               	bcf	3,5	;RP0=0, select bank0
  2152  09DB  1303               	bcf	3,6	;RP1=0, select bank0
  2153  09DC  00A6               	movwf	??_water_level_display
  2154  09DD  0826               	movf	??_water_level_display,w
  2155  09DE  00A4               	movwf	clcd_putch@addr
  2156  09DF  302A               	movlw	42
  2157  09E0  160A  118A  236D  120A  158A  	fcall	_clcd_putch
  2158  09E5                     l4381:
  2159                           
  2160                           ;main.c: 193:     clcd_print(water_level_arr[water_level_index], (0xC0 + 2));
  2161  09E5  3003               	movlw	3
  2162  09E6  0279               	subwf	_water_level_index,w
  2163  09E7  1803               	skipnc
  2164  09E8  29EA               	goto	u5571
  2165  09E9  29EB               	goto	u5570
  2166  09EA                     u5571:
  2167  09EA  2A31               	goto	l4385
  2168  09EB                     u5570:
  2169  09EB                     l4383:
  2170                           
  2171                           ;main.c: 194:     clcd_print(water_level_arr[0], (0x90 + 2));;main.c: 195:     clcd_prin
      +                          t(water_level_arr[1], (0xD0 + 2));
  2172  09EB  0879               	movf	_water_level_index,w
  2173  09EC  1283               	bcf	3,5	;RP0=0, select bank0
  2174  09ED  1303               	bcf	3,6	;RP1=0, select bank0
  2175  09EE  00A6               	movwf	??_water_level_display
  2176  09EF  0726               	addwf	??_water_level_display,w
  2177  09F0  3EB8               	addlw	(low (_water_level_arr| 0))& (0+255)
  2178  09F1  0084               	movwf	4
  2179  09F2  1383               	bcf	3,7	;select IRP bank1
  2180  09F3  0800               	movf	0,w
  2181  09F4  00A0               	movwf	clcd_print@str
  2182  09F5  0A84               	incf	4,f
  2183  09F6  0800               	movf	0,w
  2184  09F7  0384               	decf	4,f
  2185  09F8  00A1               	movwf	clcd_print@str+1
  2186  09F9  30C2               	movlw	194
  2187  09FA  00A8               	movwf	??_water_level_display+2
  2188  09FB  0828               	movf	??_water_level_display+2,w
  2189  09FC  00A2               	movwf	clcd_print@addr
  2190  09FD  160A  118A  2454  120A  158A  	fcall	_clcd_print
  2191                           
  2192                           ;main.c: 196: 
  2193  0A02  0879               	movf	_water_level_index,w
  2194  0A03  1283               	bcf	3,5	;RP0=0, select bank0
  2195  0A04  1303               	bcf	3,6	;RP1=0, select bank0
  2196  0A05  00A6               	movwf	??_water_level_display
  2197  0A06  0726               	addwf	??_water_level_display,w
  2198  0A07  3EBA               	addlw	(low ((_water_level_arr| 0+2)))& (0+255)
  2199  0A08  0084               	movwf	4
  2200  0A09  1383               	bcf	3,7	;select IRP bank1
  2201  0A0A  0800               	movf	0,w
  2202  0A0B  00A0               	movwf	clcd_print@str
  2203  0A0C  0A84               	incf	4,f
  2204  0A0D  0800               	movf	0,w
  2205  0A0E  0384               	decf	4,f
  2206  0A0F  00A1               	movwf	clcd_print@str+1
  2207  0A10  3092               	movlw	146
  2208  0A11  00A8               	movwf	??_water_level_display+2
  2209  0A12  0828               	movf	??_water_level_display+2,w
  2210  0A13  00A2               	movwf	clcd_print@addr
  2211  0A14  160A  118A  2454  120A  158A  	fcall	_clcd_print
  2212                           
  2213                           ;main.c: 197:     }
  2214  0A19  0879               	movf	_water_level_index,w
  2215  0A1A  1283               	bcf	3,5	;RP0=0, select bank0
  2216  0A1B  1303               	bcf	3,6	;RP1=0, select bank0
  2217  0A1C  00A6               	movwf	??_water_level_display
  2218  0A1D  0726               	addwf	??_water_level_display,w
  2219  0A1E  3EBC               	addlw	(low ((_water_level_arr| 0+4)))& (0+255)
  2220  0A1F  0084               	movwf	4
  2221  0A20  1383               	bcf	3,7	;select IRP bank1
  2222  0A21  0800               	movf	0,w
  2223  0A22  00A0               	movwf	clcd_print@str
  2224  0A23  0A84               	incf	4,f
  2225  0A24  0800               	movf	0,w
  2226  0A25  0384               	decf	4,f
  2227  0A26  00A1               	movwf	clcd_print@str+1
  2228  0A27  30D2               	movlw	210
  2229  0A28  00A8               	movwf	??_water_level_display+2
  2230  0A29  0828               	movf	??_water_level_display+2,w
  2231  0A2A  00A2               	movwf	clcd_print@addr
  2232  0A2B  160A  118A  2454  120A  158A  	fcall	_clcd_print
  2233                           
  2234                           ;main.c: 198: }
  2235  0A30  2AC2               	goto	l192
  2236  0A31                     l4385:
  2237  0A31  3003               	movlw	3
  2238  0A32  0679               	xorwf	_water_level_index,w
  2239  0A33  1D03               	btfss	3,2
  2240  0A34  2A36               	goto	u5581
  2241  0A35  2A37               	goto	u5580
  2242  0A36                     u5581:
  2243  0A36  2A7B               	goto	l4389
  2244  0A37                     u5580:
  2245  0A37                     l4387:
  2246                           
  2247                           ;main.c: 200: void set_time_for_program(void);main.c: 201: {
  2248  0A37  0879               	movf	_water_level_index,w
  2249  0A38  1283               	bcf	3,5	;RP0=0, select bank0
  2250  0A39  1303               	bcf	3,6	;RP1=0, select bank0
  2251  0A3A  00A6               	movwf	??_water_level_display
  2252  0A3B  0726               	addwf	??_water_level_display,w
  2253  0A3C  3EB8               	addlw	(low (_water_level_arr| 0))& (0+255)
  2254  0A3D  0084               	movwf	4
  2255  0A3E  1383               	bcf	3,7	;select IRP bank1
  2256  0A3F  0800               	movf	0,w
  2257  0A40  00A0               	movwf	clcd_print@str
  2258  0A41  0A84               	incf	4,f
  2259  0A42  0800               	movf	0,w
  2260  0A43  0384               	decf	4,f
  2261  0A44  00A1               	movwf	clcd_print@str+1
  2262  0A45  30C2               	movlw	194
  2263  0A46  00A8               	movwf	??_water_level_display+2
  2264  0A47  0828               	movf	??_water_level_display+2,w
  2265  0A48  00A2               	movwf	clcd_print@addr
  2266  0A49  160A  118A  2454  120A  158A  	fcall	_clcd_print
  2267                           
  2268                           ;main.c: 202:     switch(program_no)
  2269  0A4E  0879               	movf	_water_level_index,w
  2270  0A4F  1283               	bcf	3,5	;RP0=0, select bank0
  2271  0A50  1303               	bcf	3,6	;RP1=0, select bank0
  2272  0A51  00A6               	movwf	??_water_level_display
  2273  0A52  0726               	addwf	??_water_level_display,w
  2274  0A53  3EBA               	addlw	(low ((_water_level_arr| 0+2)))& (0+255)
  2275  0A54  0084               	movwf	4
  2276  0A55  1383               	bcf	3,7	;select IRP bank1
  2277  0A56  0800               	movf	0,w
  2278  0A57  00A0               	movwf	clcd_print@str
  2279  0A58  0A84               	incf	4,f
  2280  0A59  0800               	movf	0,w
  2281  0A5A  0384               	decf	4,f
  2282  0A5B  00A1               	movwf	clcd_print@str+1
  2283  0A5C  3092               	movlw	146
  2284  0A5D  00A8               	movwf	??_water_level_display+2
  2285  0A5E  0828               	movf	??_water_level_display+2,w
  2286  0A5F  00A2               	movwf	clcd_print@addr
  2287  0A60  160A  118A  2454  120A  158A  	fcall	_clcd_print
  2288                           
  2289                           ;main.c: 203:     {
  2290  0A65  1683               	bsf	3,5	;RP0=1, select bank1
  2291  0A66  1303               	bcf	3,6	;RP1=0, select bank1
  2292  0A67  0838               	movf	_water_level_arr^(0+128),w
  2293  0A68  1283               	bcf	3,5	;RP0=0, select bank0
  2294  0A69  1303               	bcf	3,6	;RP1=0, select bank0
  2295  0A6A  00A0               	movwf	clcd_print@str
  2296  0A6B  1683               	bsf	3,5	;RP0=1, select bank1
  2297  0A6C  1303               	bcf	3,6	;RP1=0, select bank1
  2298  0A6D  0839               	movf	(_water_level_arr+1)^(0+128),w
  2299  0A6E  1283               	bcf	3,5	;RP0=0, select bank0
  2300  0A6F  1303               	bcf	3,6	;RP1=0, select bank0
  2301  0A70  00A1               	movwf	clcd_print@str+1
  2302  0A71  30D2               	movlw	210
  2303  0A72  00A6               	movwf	??_water_level_display
  2304  0A73  0826               	movf	??_water_level_display,w
  2305  0A74  00A2               	movwf	clcd_print@addr
  2306  0A75  160A  118A  2454  120A  158A  	fcall	_clcd_print
  2307                           
  2308                           ;main.c: 205:         switch(water_level_index)
  2309  0A7A  2AC2               	goto	l192
  2310  0A7B                     l4389:
  2311  0A7B  3004               	movlw	4
  2312  0A7C  0679               	xorwf	_water_level_index,w
  2313  0A7D  1D03               	btfss	3,2
  2314  0A7E  2A80               	goto	u5591
  2315  0A7F  2A81               	goto	u5590
  2316  0A80                     u5591:
  2317  0A80  2AC2               	goto	l192
  2318  0A81                     u5590:
  2319  0A81                     l4391:
  2320                           
  2321                           ;main.c: 207: ;main.c: 208:             case 1:
  2322  0A81  0879               	movf	_water_level_index,w
  2323  0A82  1283               	bcf	3,5	;RP0=0, select bank0
  2324  0A83  1303               	bcf	3,6	;RP1=0, select bank0
  2325  0A84  00A6               	movwf	??_water_level_display
  2326  0A85  0726               	addwf	??_water_level_display,w
  2327  0A86  3EB8               	addlw	(low (_water_level_arr| 0))& (0+255)
  2328  0A87  0084               	movwf	4
  2329  0A88  1383               	bcf	3,7	;select IRP bank1
  2330  0A89  0800               	movf	0,w
  2331  0A8A  00A0               	movwf	clcd_print@str
  2332  0A8B  0A84               	incf	4,f
  2333  0A8C  0800               	movf	0,w
  2334  0A8D  0384               	decf	4,f
  2335  0A8E  00A1               	movwf	clcd_print@str+1
  2336  0A8F  30C2               	movlw	194
  2337  0A90  00A8               	movwf	??_water_level_display+2
  2338  0A91  0828               	movf	??_water_level_display+2,w
  2339  0A92  00A2               	movwf	clcd_print@addr
  2340  0A93  160A  118A  2454  120A  158A  	fcall	_clcd_print
  2341                           
  2342                           ;main.c: 209:                 sec = 33;
  2343  0A98  1683               	bsf	3,5	;RP0=1, select bank1
  2344  0A99  1303               	bcf	3,6	;RP1=0, select bank1
  2345  0A9A  0838               	movf	_water_level_arr^(0+128),w
  2346  0A9B  1283               	bcf	3,5	;RP0=0, select bank0
  2347  0A9C  1303               	bcf	3,6	;RP1=0, select bank0
  2348  0A9D  00A0               	movwf	clcd_print@str
  2349  0A9E  1683               	bsf	3,5	;RP0=1, select bank1
  2350  0A9F  1303               	bcf	3,6	;RP1=0, select bank1
  2351  0AA0  0839               	movf	(_water_level_arr+1)^(0+128),w
  2352  0AA1  1283               	bcf	3,5	;RP0=0, select bank0
  2353  0AA2  1303               	bcf	3,6	;RP1=0, select bank0
  2354  0AA3  00A1               	movwf	clcd_print@str+1
  2355  0AA4  3092               	movlw	146
  2356  0AA5  00A6               	movwf	??_water_level_display
  2357  0AA6  0826               	movf	??_water_level_display,w
  2358  0AA7  00A2               	movwf	clcd_print@addr
  2359  0AA8  160A  118A  2454  120A  158A  	fcall	_clcd_print
  2360                           
  2361                           ;main.c: 210:                 min = 0;
  2362  0AAD  1683               	bsf	3,5	;RP0=1, select bank1
  2363  0AAE  1303               	bcf	3,6	;RP1=0, select bank1
  2364  0AAF  083A               	movf	(low ((_water_level_arr| 0+2)))^(0+128),w
  2365  0AB0  1283               	bcf	3,5	;RP0=0, select bank0
  2366  0AB1  1303               	bcf	3,6	;RP1=0, select bank0
  2367  0AB2  00A0               	movwf	clcd_print@str
  2368  0AB3  1683               	bsf	3,5	;RP0=1, select bank1
  2369  0AB4  1303               	bcf	3,6	;RP1=0, select bank1
  2370  0AB5  083B               	movf	((low ((_water_level_arr| 0+2))+1))^(0+128),w
  2371  0AB6  1283               	bcf	3,5	;RP0=0, select bank0
  2372  0AB7  1303               	bcf	3,6	;RP1=0, select bank0
  2373  0AB8  00A1               	movwf	clcd_print@str+1
  2374  0AB9  30D2               	movlw	210
  2375  0ABA  00A6               	movwf	??_water_level_display
  2376  0ABB  0826               	movf	??_water_level_display,w
  2377  0ABC  00A2               	movwf	clcd_print@addr
  2378  0ABD  160A  118A  2454  120A  158A  	fcall	_clcd_print
  2379  0AC2                     l192:
  2380  0AC2  0008               	return
  2381  0AC3                     __end_of_water_level_display:
  2382                           
  2383                           	psect	text2
  2384  087F                     __ptext2:	
  2385 ;; *************** function _washing_programs_display *****************
  2386 ;; Defined at:
  2387 ;;		line 138 in file "main.c"
  2388 ;; Parameters:    Size  Location     Type
  2389 ;;  key             1    wreg     unsigned char 
  2390 ;; Auto vars:     Size  Location     Type
  2391 ;;  key             1    9[BANK0 ] unsigned char 
  2392 ;; Return value:  Size  Location     Type
  2393 ;;                  1    wreg      void 
  2394 ;; Registers used:
  2395 ;;		wreg, fsr0l, fsr0h, status,2, status,0, btemp+1, pclath, cstack
  2396 ;; Tracked objects:
  2397 ;;		On entry : 0/0
  2398 ;;		On exit  : 0/0
  2399 ;;		Unchanged: 0/0
  2400 ;; Data sizes:     COMMON   BANK0   BANK1   BANK3   BANK2
  2401 ;;      Params:         0       0       0       0       0
  2402 ;;      Locals:         0       1       0       0       0
  2403 ;;      Temps:          0       3       0       0       0
  2404 ;;      Totals:         0       4       0       0       0
  2405 ;;Total ram usage:        4 bytes
  2406 ;; Hardware stack levels used: 1
  2407 ;; Hardware stack levels required when called: 3
  2408 ;; This function calls:
  2409 ;;		_clcd_print
  2410 ;;		_clcd_putch
  2411 ;;		_clear_screen
  2412 ;; This function is called by:
  2413 ;;		_main
  2414 ;; This function uses a non-reentrant model
  2415 ;;
  2416                           
  2417                           
  2418                           ;psect for function _washing_programs_display
  2419  087F                     _washing_programs_display:
  2420                           
  2421                           ;incstack = 0
  2422                           ; Regs used in _washing_programs_display: [wreg-fsr0h+status,2+status,0+btemp+1+pclath+c
      +                          stack]
  2423                           ;washing_programs_display@key stored from wreg
  2424  087F  1283               	bcf	3,5	;RP0=0, select bank0
  2425  0880  1303               	bcf	3,6	;RP1=0, select bank0
  2426  0881  00A9               	movwf	washing_programs_display@key
  2427  0882                     l4333:
  2428                           
  2429                           ;main.c: 138:    clcd_print("Washing Programs",(0x80 + 0));;main.c: 139:    clcd_putch('
      +                          *',(0xC0 + 0));;main.c: 140:    if(program_no<=9)
  2430  0882  3010               	movlw	16
  2431  0883  1683               	bsf	3,5	;RP0=1, select bank1
  2432  0884  1303               	bcf	3,6	;RP1=0, select bank1
  2433  0885  064B               	xorwf	_reset_mode^(0+128),w
  2434  0886  1D03               	btfss	3,2
  2435  0887  2889               	goto	u5481
  2436  0888  288A               	goto	u5480
  2437  0889                     u5481:
  2438  0889  2890               	goto	l4339
  2439  088A                     u5480:
  2440  088A                     l4335:
  2441                           
  2442                           ;main.c: 141:    {;main.c: 142: 
  2443  088A  160A  118A  234D  120A  158A  	fcall	_clear_screen
  2444  088F                     l4337:
  2445                           
  2446                           ;main.c: 143:      clcd_print(washing_prog[program_no],(0xC0 + 2));
  2447  088F  01FA               	clrf	_program_no
  2448  0890                     l4339:
  2449                           
  2450                           ;main.c: 146:    }
  2451  0890  3037               	movlw	55
  2452  0891  1283               	bcf	3,5	;RP0=0, select bank0
  2453  0892  1303               	bcf	3,6	;RP1=0, select bank0
  2454  0893  0629               	xorwf	washing_programs_display@key,w
  2455  0894  1D03               	btfss	3,2
  2456  0895  2897               	goto	u5491
  2457  0896  2898               	goto	u5490
  2458  0897                     u5491:
  2459  0897  28A8               	goto	l4347
  2460  0898                     u5490:
  2461  0898                     l4341:
  2462                           
  2463                           ;main.c: 147:    else if(program_no==10);main.c: 148:   {
  2464  0898  3001               	movlw	1
  2465  0899  00A6               	movwf	??_washing_programs_display
  2466  089A  0826               	movf	??_washing_programs_display,w
  2467  089B  07FA               	addwf	_program_no,f
  2468                           
  2469                           ;main.c: 149:      clcd_print(washing_prog[program_no],(0xC0 + 2));
  2470  089C  300C               	movlw	12
  2471  089D  067A               	xorwf	_program_no,w
  2472  089E  1D03               	btfss	3,2
  2473  089F  28A1               	goto	u5501
  2474  08A0  28A2               	goto	u5500
  2475  08A1                     u5501:
  2476  08A1  28A3               	goto	l4345
  2477  08A2                     u5500:
  2478  08A2                     l4343:
  2479                           
  2480                           ;main.c: 150:      clcd_print(washing_prog[program_no + 1],(0x90 + 2));
  2481  08A2  01FA               	clrf	_program_no
  2482  08A3                     l4345:
  2483                           
  2484                           ;main.c: 151:       clcd_print(washing_prog[0],(0xD0 + 2));
  2485  08A3  160A  118A  234D  120A  158A  	fcall	_clear_screen
  2486  08A8                     l4347:
  2487                           
  2488                           ;main.c: 153:    else if (program_no==11)
  2489  08A8  3066               	movlw	low (STR_26| (0+32768))
  2490  08A9  1283               	bcf	3,5	;RP0=0, select bank0
  2491  08AA  1303               	bcf	3,6	;RP1=0, select bank0
  2492  08AB  00A0               	movwf	clcd_print@str
  2493  08AC  3090               	movlw	high (STR_26| (0+32768))
  2494  08AD  00A1               	movwf	clcd_print@str+1
  2495  08AE  3080               	movlw	128
  2496  08AF  00A6               	movwf	??_washing_programs_display
  2497  08B0  0826               	movf	??_washing_programs_display,w
  2498  08B1  00A2               	movwf	clcd_print@addr
  2499  08B2  160A  118A  2454  120A  158A  	fcall	_clcd_print
  2500  08B7                     l4349:
  2501                           
  2502                           ;main.c: 154:    {
  2503  08B7  30C0               	movlw	192
  2504  08B8  1283               	bcf	3,5	;RP0=0, select bank0
  2505  08B9  1303               	bcf	3,6	;RP1=0, select bank0
  2506  08BA  00A6               	movwf	??_washing_programs_display
  2507  08BB  0826               	movf	??_washing_programs_display,w
  2508  08BC  00A4               	movwf	clcd_putch@addr
  2509  08BD  302A               	movlw	42
  2510  08BE  160A  118A  236D  120A  158A  	fcall	_clcd_putch
  2511  08C3                     l4351:
  2512                           
  2513                           ;main.c: 155:    clcd_print(washing_prog[program_no],(0xC0 + 2));
  2514  08C3  300A               	movlw	10
  2515  08C4  027A               	subwf	_program_no,w
  2516  08C5  1803               	skipnc
  2517  08C6  28C8               	goto	u5511
  2518  08C7  28C9               	goto	u5510
  2519  08C8                     u5511:
  2520  08C8  290F               	goto	l4355
  2521  08C9                     u5510:
  2522  08C9                     l4353:
  2523                           
  2524                           ;main.c: 156:    clcd_print(washing_prog[0],(0x90 + 2));;main.c: 158:    }
  2525  08C9  087A               	movf	_program_no,w
  2526  08CA  1283               	bcf	3,5	;RP0=0, select bank0
  2527  08CB  1303               	bcf	3,6	;RP1=0, select bank0
  2528  08CC  00A6               	movwf	??_washing_programs_display
  2529  08CD  0726               	addwf	??_washing_programs_display,w
  2530  08CE  3EA0               	addlw	(low (_washing_prog| 0))& (0+255)
  2531  08CF  0084               	movwf	4
  2532  08D0  1383               	bcf	3,7	;select IRP bank1
  2533  08D1  0800               	movf	0,w
  2534  08D2  00A0               	movwf	clcd_print@str
  2535  08D3  0A84               	incf	4,f
  2536  08D4  0800               	movf	0,w
  2537  08D5  0384               	decf	4,f
  2538  08D6  00A1               	movwf	clcd_print@str+1
  2539  08D7  30C2               	movlw	194
  2540  08D8  00A8               	movwf	??_washing_programs_display+2
  2541  08D9  0828               	movf	??_washing_programs_display+2,w
  2542  08DA  00A2               	movwf	clcd_print@addr
  2543  08DB  160A  118A  2454  120A  158A  	fcall	_clcd_print
  2544                           
  2545                           ;main.c: 159: }
  2546  08E0  087A               	movf	_program_no,w
  2547  08E1  1283               	bcf	3,5	;RP0=0, select bank0
  2548  08E2  1303               	bcf	3,6	;RP1=0, select bank0
  2549  08E3  00A6               	movwf	??_washing_programs_display
  2550  08E4  0726               	addwf	??_washing_programs_display,w
  2551  08E5  3EA2               	addlw	(low ((_washing_prog| 0+2)))& (0+255)
  2552  08E6  0084               	movwf	4
  2553  08E7  1383               	bcf	3,7	;select IRP bank1
  2554  08E8  0800               	movf	0,w
  2555  08E9  00A0               	movwf	clcd_print@str
  2556  08EA  0A84               	incf	4,f
  2557  08EB  0800               	movf	0,w
  2558  08EC  0384               	decf	4,f
  2559  08ED  00A1               	movwf	clcd_print@str+1
  2560  08EE  3092               	movlw	146
  2561  08EF  00A8               	movwf	??_washing_programs_display+2
  2562  08F0  0828               	movf	??_washing_programs_display+2,w
  2563  08F1  00A2               	movwf	clcd_print@addr
  2564  08F2  160A  118A  2454  120A  158A  	fcall	_clcd_print
  2565                           
  2566                           ;main.c: 160: void water_level_display(unsigned char key)
  2567  08F7  087A               	movf	_program_no,w
  2568  08F8  1283               	bcf	3,5	;RP0=0, select bank0
  2569  08F9  1303               	bcf	3,6	;RP1=0, select bank0
  2570  08FA  00A6               	movwf	??_washing_programs_display
  2571  08FB  0726               	addwf	??_washing_programs_display,w
  2572  08FC  3EA4               	addlw	(low ((_washing_prog| 0+4)))& (0+255)
  2573  08FD  0084               	movwf	4
  2574  08FE  1383               	bcf	3,7	;select IRP bank1
  2575  08FF  0800               	movf	0,w
  2576  0900  00A0               	movwf	clcd_print@str
  2577  0901  0A84               	incf	4,f
  2578  0902  0800               	movf	0,w
  2579  0903  0384               	decf	4,f
  2580  0904  00A1               	movwf	clcd_print@str+1
  2581  0905  30D2               	movlw	210
  2582  0906  00A8               	movwf	??_washing_programs_display+2
  2583  0907  0828               	movf	??_washing_programs_display+2,w
  2584  0908  00A2               	movwf	clcd_print@addr
  2585  0909  160A  118A  2454  120A  158A  	fcall	_clcd_print
  2586                           
  2587                           ;main.c: 161: {
  2588  090E  29A0               	goto	l181
  2589  090F                     l4355:
  2590  090F  300A               	movlw	10
  2591  0910  067A               	xorwf	_program_no,w
  2592  0911  1D03               	btfss	3,2
  2593  0912  2914               	goto	u5521
  2594  0913  2915               	goto	u5520
  2595  0914                     u5521:
  2596  0914  2959               	goto	l4359
  2597  0915                     u5520:
  2598  0915                     l4357:
  2599                           
  2600                           ;main.c: 163:     {;main.c: 164:         water_level_index = 0;
  2601  0915  087A               	movf	_program_no,w
  2602  0916  1283               	bcf	3,5	;RP0=0, select bank0
  2603  0917  1303               	bcf	3,6	;RP1=0, select bank0
  2604  0918  00A6               	movwf	??_washing_programs_display
  2605  0919  0726               	addwf	??_washing_programs_display,w
  2606  091A  3EA0               	addlw	(low (_washing_prog| 0))& (0+255)
  2607  091B  0084               	movwf	4
  2608  091C  1383               	bcf	3,7	;select IRP bank1
  2609  091D  0800               	movf	0,w
  2610  091E  00A0               	movwf	clcd_print@str
  2611  091F  0A84               	incf	4,f
  2612  0920  0800               	movf	0,w
  2613  0921  0384               	decf	4,f
  2614  0922  00A1               	movwf	clcd_print@str+1
  2615  0923  30C2               	movlw	194
  2616  0924  00A8               	movwf	??_washing_programs_display+2
  2617  0925  0828               	movf	??_washing_programs_display+2,w
  2618  0926  00A2               	movwf	clcd_print@addr
  2619  0927  160A  118A  2454  120A  158A  	fcall	_clcd_print
  2620                           
  2621                           ;main.c: 165:         clear_screen();
  2622  092C  087A               	movf	_program_no,w
  2623  092D  1283               	bcf	3,5	;RP0=0, select bank0
  2624  092E  1303               	bcf	3,6	;RP1=0, select bank0
  2625  092F  00A6               	movwf	??_washing_programs_display
  2626  0930  0726               	addwf	??_washing_programs_display,w
  2627  0931  3EA2               	addlw	(low ((_washing_prog| 0+2)))& (0+255)
  2628  0932  0084               	movwf	4
  2629  0933  1383               	bcf	3,7	;select IRP bank1
  2630  0934  0800               	movf	0,w
  2631  0935  00A0               	movwf	clcd_print@str
  2632  0936  0A84               	incf	4,f
  2633  0937  0800               	movf	0,w
  2634  0938  0384               	decf	4,f
  2635  0939  00A1               	movwf	clcd_print@str+1
  2636  093A  3092               	movlw	146
  2637  093B  00A8               	movwf	??_washing_programs_display+2
  2638  093C  0828               	movf	??_washing_programs_display+2,w
  2639  093D  00A2               	movwf	clcd_print@addr
  2640  093E  160A  118A  2454  120A  158A  	fcall	_clcd_print
  2641                           
  2642                           ;main.c: 166:     }
  2643  0943  1683               	bsf	3,5	;RP0=1, select bank1
  2644  0944  1303               	bcf	3,6	;RP1=0, select bank1
  2645  0945  0820               	movf	_washing_prog^(0+128),w
  2646  0946  1283               	bcf	3,5	;RP0=0, select bank0
  2647  0947  1303               	bcf	3,6	;RP1=0, select bank0
  2648  0948  00A0               	movwf	clcd_print@str
  2649  0949  1683               	bsf	3,5	;RP0=1, select bank1
  2650  094A  1303               	bcf	3,6	;RP1=0, select bank1
  2651  094B  0821               	movf	(_washing_prog+1)^(0+128),w
  2652  094C  1283               	bcf	3,5	;RP0=0, select bank0
  2653  094D  1303               	bcf	3,6	;RP1=0, select bank0
  2654  094E  00A1               	movwf	clcd_print@str+1
  2655  094F  30D2               	movlw	210
  2656  0950  00A6               	movwf	??_washing_programs_display
  2657  0951  0826               	movf	??_washing_programs_display,w
  2658  0952  00A2               	movwf	clcd_print@addr
  2659  0953  160A  118A  2454  120A  158A  	fcall	_clcd_print
  2660                           
  2661                           ;main.c: 167:     if(key == 0x37)
  2662  0958  29A0               	goto	l181
  2663  0959                     l4359:
  2664  0959  300B               	movlw	11
  2665  095A  067A               	xorwf	_program_no,w
  2666  095B  1D03               	btfss	3,2
  2667  095C  295E               	goto	u5531
  2668  095D  295F               	goto	u5530
  2669  095E                     u5531:
  2670  095E  29A0               	goto	l181
  2671  095F                     u5530:
  2672  095F                     l4361:
  2673                           
  2674                           ;main.c: 169:         water_level_index++;;main.c: 170:         if(water_level_index == 
      +                          5)
  2675  095F  087A               	movf	_program_no,w
  2676  0960  1283               	bcf	3,5	;RP0=0, select bank0
  2677  0961  1303               	bcf	3,6	;RP1=0, select bank0
  2678  0962  00A6               	movwf	??_washing_programs_display
  2679  0963  0726               	addwf	??_washing_programs_display,w
  2680  0964  3EA0               	addlw	(low (_washing_prog| 0))& (0+255)
  2681  0965  0084               	movwf	4
  2682  0966  1383               	bcf	3,7	;select IRP bank1
  2683  0967  0800               	movf	0,w
  2684  0968  00A0               	movwf	clcd_print@str
  2685  0969  0A84               	incf	4,f
  2686  096A  0800               	movf	0,w
  2687  096B  0384               	decf	4,f
  2688  096C  00A1               	movwf	clcd_print@str+1
  2689  096D  30C2               	movlw	194
  2690  096E  00A8               	movwf	??_washing_programs_display+2
  2691  096F  0828               	movf	??_washing_programs_display+2,w
  2692  0970  00A2               	movwf	clcd_print@addr
  2693  0971  160A  118A  2454  120A  158A  	fcall	_clcd_print
  2694                           
  2695                           ;main.c: 171:         {
  2696  0976  1683               	bsf	3,5	;RP0=1, select bank1
  2697  0977  1303               	bcf	3,6	;RP1=0, select bank1
  2698  0978  0820               	movf	_washing_prog^(0+128),w
  2699  0979  1283               	bcf	3,5	;RP0=0, select bank0
  2700  097A  1303               	bcf	3,6	;RP1=0, select bank0
  2701  097B  00A0               	movwf	clcd_print@str
  2702  097C  1683               	bsf	3,5	;RP0=1, select bank1
  2703  097D  1303               	bcf	3,6	;RP1=0, select bank1
  2704  097E  0821               	movf	(_washing_prog+1)^(0+128),w
  2705  097F  1283               	bcf	3,5	;RP0=0, select bank0
  2706  0980  1303               	bcf	3,6	;RP1=0, select bank0
  2707  0981  00A1               	movwf	clcd_print@str+1
  2708  0982  3092               	movlw	146
  2709  0983  00A6               	movwf	??_washing_programs_display
  2710  0984  0826               	movf	??_washing_programs_display,w
  2711  0985  00A2               	movwf	clcd_print@addr
  2712  0986  160A  118A  2454  120A  158A  	fcall	_clcd_print
  2713                           
  2714                           ;main.c: 172:             water_level_index=0;
  2715  098B  1683               	bsf	3,5	;RP0=1, select bank1
  2716  098C  1303               	bcf	3,6	;RP1=0, select bank1
  2717  098D  0822               	movf	(low ((_washing_prog| 0+2)))^(0+128),w
  2718  098E  1283               	bcf	3,5	;RP0=0, select bank0
  2719  098F  1303               	bcf	3,6	;RP1=0, select bank0
  2720  0990  00A0               	movwf	clcd_print@str
  2721  0991  1683               	bsf	3,5	;RP0=1, select bank1
  2722  0992  1303               	bcf	3,6	;RP1=0, select bank1
  2723  0993  0823               	movf	((low ((_washing_prog| 0+2))+1))^(0+128),w
  2724  0994  1283               	bcf	3,5	;RP0=0, select bank0
  2725  0995  1303               	bcf	3,6	;RP1=0, select bank0
  2726  0996  00A1               	movwf	clcd_print@str+1
  2727  0997  30D2               	movlw	210
  2728  0998  00A6               	movwf	??_washing_programs_display
  2729  0999  0826               	movf	??_washing_programs_display,w
  2730  099A  00A2               	movwf	clcd_print@addr
  2731  099B  160A  118A  2454  120A  158A  	fcall	_clcd_print
  2732  09A0                     l181:
  2733  09A0  0008               	return
  2734  09A1                     __end_of_washing_programs_display:
  2735                           
  2736                           	psect	text3
  2737  0AC3                     __ptext3:	
  2738 ;; *************** function _set_time_for_program *****************
  2739 ;; Defined at:
  2740 ;;		line 215 in file "main.c"
  2741 ;; Parameters:    Size  Location     Type
  2742 ;;		None
  2743 ;; Auto vars:     Size  Location     Type
  2744 ;;		None
  2745 ;; Return value:  Size  Location     Type
  2746 ;;                  1    wreg      void 
  2747 ;; Registers used:
  2748 ;;		wreg, fsr0l, fsr0h, status,2, status,0
  2749 ;; Tracked objects:
  2750 ;;		On entry : 0/0
  2751 ;;		On exit  : 0/0
  2752 ;;		Unchanged: 0/0
  2753 ;; Data sizes:     COMMON   BANK0   BANK1   BANK3   BANK2
  2754 ;;      Params:         0       0       0       0       0
  2755 ;;      Locals:         0       0       0       0       0
  2756 ;;      Temps:          2       0       0       0       0
  2757 ;;      Totals:         2       0       0       0       0
  2758 ;;Total ram usage:        2 bytes
  2759 ;; Hardware stack levels used: 1
  2760 ;; Hardware stack levels required when called: 1
  2761 ;; This function calls:
  2762 ;;		Nothing
  2763 ;; This function is called by:
  2764 ;;		_main
  2765 ;; This function uses a non-reentrant model
  2766 ;;
  2767                           
  2768                           
  2769                           ;psect for function _set_time_for_program
  2770  0AC3                     _set_time_for_program:
  2771  0AC3                     l4217:	
  2772                           ;incstack = 0
  2773                           ; Regs used in _set_time_for_program: [wreg-fsr0h+status,2+status,0]
  2774                           
  2775                           
  2776                           ;main.c: 217:              case 3:
  2777  0AC3  2BDD               	goto	l4303
  2778  0AC4                     l4219:
  2779                           
  2780                           ;main.c: 224:          switch(water_level_index)
  2781  0AC4  3021               	movlw	33
  2782  0AC5  00F3               	movwf	??_set_time_for_program
  2783  0AC6  0873               	movf	??_set_time_for_program,w
  2784  0AC7  00F8               	movwf	_sec
  2785  0AC8                     l4221:
  2786                           
  2787                           ;main.c: 225:          {
  2788  0AC8  1283               	bcf	3,5	;RP0=0, select bank0
  2789  0AC9  1303               	bcf	3,6	;RP1=0, select bank0
  2790  0ACA  01EA               	clrf	_min
  2791                           
  2792                           ;main.c: 226: 
  2793  0ACB  2C0B               	goto	l251
  2794  0ACC                     l4223:
  2795                           
  2796                           ;main.c: 229:          min = 0;
  2797  0ACC  3029               	movlw	41
  2798  0ACD  00F3               	movwf	??_set_time_for_program
  2799  0ACE  0873               	movf	??_set_time_for_program,w
  2800  0ACF  00F8               	movwf	_sec
  2801  0AD0  2AC8               	goto	l4221
  2802  0AD1                     l4227:
  2803                           
  2804                           ;main.c: 234:         break;
  2805  0AD1  302D               	movlw	45
  2806  0AD2  00F3               	movwf	??_set_time_for_program
  2807  0AD3  0873               	movf	??_set_time_for_program,w
  2808  0AD4  00F8               	movwf	_sec
  2809  0AD5  2AC8               	goto	l4221
  2810  0AD6                     l4231:
  2811  0AD6  0879               	movf	_water_level_index,w
  2812  0AD7  00F3               	movwf	??_set_time_for_program
  2813  0AD8  01F4               	clrf	??_set_time_for_program+1
  2814                           
  2815                           ; Switch on 2 bytes has been partitioned into a top level switch of size 1, and 1 sub-sw
      +                          itches
  2816                           ; Switch size 1, requested type "simple"
  2817                           ; Number of cases is 1, Range of values is 0 to 0
  2818                           ; switch strategies available:
  2819                           ; Name         Instructions Cycles
  2820                           ; simple_byte            4     3 (average)
  2821                           ; direct_byte           11     8 (fixed)
  2822                           ; jumptable            260     6 (fixed)
  2823                           ;	Chosen strategy is simple_byte
  2824  0AD9  0874               	movf	??_set_time_for_program+1,w
  2825  0ADA  3A00               	xorlw	0	; case 0
  2826  0ADB  1903               	skipnz
  2827  0ADC  2ADE               	goto	l4763
  2828  0ADD  2C0B               	goto	l251
  2829  0ADE                     l4763:
  2830                           
  2831                           ; Switch size 1, requested type "simple"
  2832                           ; Number of cases is 5, Range of values is 0 to 4
  2833                           ; switch strategies available:
  2834                           ; Name         Instructions Cycles
  2835                           ; simple_byte           16     9 (average)
  2836                           ; direct_byte           23     8 (fixed)
  2837                           ; jumptable            260     6 (fixed)
  2838                           ;	Chosen strategy is simple_byte
  2839  0ADE  0873               	movf	??_set_time_for_program,w
  2840  0ADF  3A00               	xorlw	0	; case 0
  2841  0AE0  1903               	skipnz
  2842  0AE1  2ACC               	goto	l4223
  2843  0AE2  3A01               	xorlw	1	; case 1
  2844  0AE3  1903               	skipnz
  2845  0AE4  2AC4               	goto	l4219
  2846  0AE5  3A03               	xorlw	3	; case 2
  2847  0AE6  1903               	skipnz
  2848  0AE7  2ACC               	goto	l4223
  2849  0AE8  3A01               	xorlw	1	; case 3
  2850  0AE9  1903               	skipnz
  2851  0AEA  2AD1               	goto	l4227
  2852  0AEB  3A07               	xorlw	7	; case 4
  2853  0AEC  1903               	skipnz
  2854  0AED  2AD1               	goto	l4227
  2855  0AEE  2C0B               	goto	l251
  2856  0AEF                     l4233:
  2857                           
  2858                           ;main.c: 243:             {
  2859  0AEF  302B               	movlw	43
  2860  0AF0  00F3               	movwf	??_set_time_for_program
  2861  0AF1  0873               	movf	??_set_time_for_program,w
  2862  0AF2  00F8               	movwf	_sec
  2863  0AF3                     l4235:
  2864                           
  2865                           ;main.c: 244: 
  2866  0AF3  1283               	bcf	3,5	;RP0=0, select bank0
  2867  0AF4  1303               	bcf	3,6	;RP1=0, select bank0
  2868  0AF5  01EA               	clrf	_min
  2869  0AF6                     l4237:
  2870                           
  2871                           ;main.c: 247:                 case 2:
  2872  0AF6  3032               	movlw	50
  2873  0AF7  00F3               	movwf	??_set_time_for_program
  2874  0AF8  0873               	movf	??_set_time_for_program,w
  2875  0AF9  00F8               	movwf	_sec
  2876                           
  2877                           ;main.c: 248:                     sec = 26;
  2878  0AFA  1283               	bcf	3,5	;RP0=0, select bank0
  2879  0AFB  1303               	bcf	3,6	;RP1=0, select bank0
  2880  0AFC  01EA               	clrf	_min
  2881                           
  2882                           ;main.c: 249:                     min = 0;
  2883  0AFD  2C0B               	goto	l251
  2884  0AFE                     l4239:
  2885                           
  2886                           ;main.c: 252:                 case 4:
  2887  0AFE  3039               	movlw	57
  2888  0AFF  00F3               	movwf	??_set_time_for_program
  2889  0B00  0873               	movf	??_set_time_for_program,w
  2890  0B01  00F8               	movwf	_sec
  2891  0B02  2AC8               	goto	l4221
  2892  0B03                     l4243:
  2893  0B03  0879               	movf	_water_level_index,w
  2894  0B04  00F3               	movwf	??_set_time_for_program
  2895  0B05  01F4               	clrf	??_set_time_for_program+1
  2896                           
  2897                           ; Switch on 2 bytes has been partitioned into a top level switch of size 1, and 1 sub-sw
      +                          itches
  2898                           ; Switch size 1, requested type "simple"
  2899                           ; Number of cases is 1, Range of values is 0 to 0
  2900                           ; switch strategies available:
  2901                           ; Name         Instructions Cycles
  2902                           ; simple_byte            4     3 (average)
  2903                           ; direct_byte           11     8 (fixed)
  2904                           ; jumptable            260     6 (fixed)
  2905                           ;	Chosen strategy is simple_byte
  2906  0B06  0874               	movf	??_set_time_for_program+1,w
  2907  0B07  3A00               	xorlw	0	; case 0
  2908  0B08  1903               	skipnz
  2909  0B09  2B0B               	goto	l4765
  2910  0B0A  2C0B               	goto	l251
  2911  0B0B                     l4765:
  2912                           
  2913                           ; Switch size 1, requested type "simple"
  2914                           ; Number of cases is 5, Range of values is 0 to 4
  2915                           ; switch strategies available:
  2916                           ; Name         Instructions Cycles
  2917                           ; simple_byte           16     9 (average)
  2918                           ; direct_byte           23     8 (fixed)
  2919                           ; jumptable            260     6 (fixed)
  2920                           ;	Chosen strategy is simple_byte
  2921  0B0B  0873               	movf	??_set_time_for_program,w
  2922  0B0C  3A00               	xorlw	0	; case 0
  2923  0B0D  1903               	skipnz
  2924  0B0E  2AF6               	goto	l4237
  2925  0B0F  3A01               	xorlw	1	; case 1
  2926  0B10  1903               	skipnz
  2927  0B11  2AEF               	goto	l4233
  2928  0B12  3A03               	xorlw	3	; case 2
  2929  0B13  1903               	skipnz
  2930  0B14  2AF6               	goto	l4237
  2931  0B15  3A01               	xorlw	1	; case 3
  2932  0B16  1903               	skipnz
  2933  0B17  2AFE               	goto	l4239
  2934  0B18  3A07               	xorlw	7	; case 4
  2935  0B19  1903               	skipnz
  2936  0B1A  2AFE               	goto	l4239
  2937  0B1B  2C0B               	goto	l251
  2938  0B1C                     l4245:
  2939                           
  2940                           ;main.c: 263:             sec = 36;
  2941  0B1C  301A               	movlw	26
  2942  0B1D  00F3               	movwf	??_set_time_for_program
  2943  0B1E  0873               	movf	??_set_time_for_program,w
  2944  0B1F  00F8               	movwf	_sec
  2945  0B20  2AC8               	goto	l4221
  2946  0B21                     l4249:
  2947                           
  2948                           ;main.c: 268:             break;
  2949  0B21  301F               	movlw	31
  2950  0B22  00F3               	movwf	??_set_time_for_program
  2951  0B23  0873               	movf	??_set_time_for_program,w
  2952  0B24  00F8               	movwf	_sec
  2953  0B25  2AC8               	goto	l4221
  2954  0B26                     l4253:
  2955  0B26  0879               	movf	_water_level_index,w
  2956  0B27  00F3               	movwf	??_set_time_for_program
  2957  0B28  01F4               	clrf	??_set_time_for_program+1
  2958                           
  2959                           ; Switch on 2 bytes has been partitioned into a top level switch of size 1, and 1 sub-sw
      +                          itches
  2960                           ; Switch size 1, requested type "simple"
  2961                           ; Number of cases is 1, Range of values is 0 to 0
  2962                           ; switch strategies available:
  2963                           ; Name         Instructions Cycles
  2964                           ; simple_byte            4     3 (average)
  2965                           ; direct_byte           11     8 (fixed)
  2966                           ; jumptable            260     6 (fixed)
  2967                           ;	Chosen strategy is simple_byte
  2968  0B29  0874               	movf	??_set_time_for_program+1,w
  2969  0B2A  3A00               	xorlw	0	; case 0
  2970  0B2B  1903               	skipnz
  2971  0B2C  2B2E               	goto	l4767
  2972  0B2D  2C0B               	goto	l251
  2973  0B2E                     l4767:
  2974                           
  2975                           ; Switch size 1, requested type "simple"
  2976                           ; Number of cases is 5, Range of values is 0 to 4
  2977                           ; switch strategies available:
  2978                           ; Name         Instructions Cycles
  2979                           ; simple_byte           16     9 (average)
  2980                           ; direct_byte           23     8 (fixed)
  2981                           ; jumptable            260     6 (fixed)
  2982                           ;	Chosen strategy is simple_byte
  2983  0B2E  0873               	movf	??_set_time_for_program,w
  2984  0B2F  3A00               	xorlw	0	; case 0
  2985  0B30  1903               	skipnz
  2986  0B31  2B1C               	goto	l4245
  2987  0B32  3A01               	xorlw	1	; case 1
  2988  0B33  1903               	skipnz
  2989  0B34  2B1C               	goto	l4245
  2990  0B35  3A03               	xorlw	3	; case 2
  2991  0B36  1903               	skipnz
  2992  0B37  2B1C               	goto	l4245
  2993  0B38  3A01               	xorlw	1	; case 3
  2994  0B39  1903               	skipnz
  2995  0B3A  2B21               	goto	l4249
  2996  0B3B  3A07               	xorlw	7	; case 4
  2997  0B3C  1903               	skipnz
  2998  0B3D  2B21               	goto	l4249
  2999  0B3E  2C0B               	goto	l251
  3000  0B3F                     l4255:
  3001                           
  3002                           ;main.c: 273:             switch(water_level_index)
  3003  0B3F  3010               	movlw	16
  3004  0B40  00F3               	movwf	??_set_time_for_program
  3005  0B41  0873               	movf	??_set_time_for_program,w
  3006  0B42  00F8               	movwf	_sec
  3007  0B43                     l4257:
  3008                           
  3009                           ;main.c: 274:             {
  3010  0B43  1283               	bcf	3,5	;RP0=0, select bank0
  3011  0B44  1303               	bcf	3,6	;RP1=0, select bank0
  3012  0B45  01EA               	clrf	_min
  3013  0B46  0AEA               	incf	_min,f
  3014                           
  3015                           ;main.c: 275: 
  3016  0B47  2C0B               	goto	l251
  3017  0B48                     l4259:
  3018                           
  3019                           ;main.c: 278:                 min = 0;
  3020  0B48  3024               	movlw	36
  3021  0B49  00F3               	movwf	??_set_time_for_program
  3022  0B4A  0873               	movf	??_set_time_for_program,w
  3023  0B4B  00F8               	movwf	_sec
  3024  0B4C                     l4261:
  3025                           
  3026                           ;main.c: 279:                 case 0:
  3027  0B4C  1283               	bcf	3,5	;RP0=0, select bank0
  3028  0B4D  1303               	bcf	3,6	;RP1=0, select bank0
  3029  0B4E  01EA               	clrf	_min
  3030  0B4F  0AEA               	incf	_min,f
  3031  0B50                     l223:	
  3032                           ;main.c: 280:                 case 2:
  3033                           
  3034                           
  3035                           ;main.c: 281:                     sec = 53;
  3036  0B50  301C               	movlw	28
  3037  0B51  00F3               	movwf	??_set_time_for_program
  3038  0B52  0873               	movf	??_set_time_for_program,w
  3039  0B53  00F8               	movwf	_sec
  3040  0B54  2AC8               	goto	l4221
  3041  0B55                     l4265:
  3042                           
  3043                           ;main.c: 285:                 case 4:
  3044  0B55  301D               	movlw	29
  3045  0B56  00F3               	movwf	??_set_time_for_program
  3046  0B57  0873               	movf	??_set_time_for_program,w
  3047  0B58  00F8               	movwf	_sec
  3048                           
  3049                           ;main.c: 286:                     sec = 60;
  3050  0B59  2C0B               	goto	l251
  3051  0B5A                     l4267:
  3052                           
  3053                           ;main.c: 292:             {
  3054  0B5A  302E               	movlw	46
  3055  0B5B  00F3               	movwf	??_set_time_for_program
  3056  0B5C  0873               	movf	??_set_time_for_program,w
  3057  0B5D  00F8               	movwf	_sec
  3058  0B5E                     l4269:
  3059                           
  3060                           ;main.c: 293: 
  3061  0B5E  1283               	bcf	3,5	;RP0=0, select bank0
  3062  0B5F  1303               	bcf	3,6	;RP1=0, select bank0
  3063  0B60  01EA               	clrf	_min
  3064  0B61                     l4271:
  3065                           
  3066                           ;main.c: 296:                     min = 0;
  3067  0B61  3035               	movlw	53
  3068  0B62  00F3               	movwf	??_set_time_for_program
  3069  0B63  0873               	movf	??_set_time_for_program,w
  3070  0B64  00F8               	movwf	_sec
  3071                           
  3072                           ;main.c: 297:                 case 0:
  3073  0B65  1283               	bcf	3,5	;RP0=0, select bank0
  3074  0B66  1303               	bcf	3,6	;RP1=0, select bank0
  3075  0B67  01EA               	clrf	_min
  3076                           
  3077                           ;main.c: 298:                 case 2:
  3078  0B68  2C0B               	goto	l251
  3079  0B69                     l4273:
  3080                           
  3081                           ;main.c: 301:                     sec = 20;
  3082  0B69  303C               	movlw	60
  3083  0B6A  00F3               	movwf	??_set_time_for_program
  3084  0B6B  0873               	movf	??_set_time_for_program,w
  3085  0B6C  00F8               	movwf	_sec
  3086  0B6D  2AC8               	goto	l4221
  3087  0B6E                     l4277:
  3088  0B6E  0879               	movf	_water_level_index,w
  3089  0B6F  00F3               	movwf	??_set_time_for_program
  3090  0B70  01F4               	clrf	??_set_time_for_program+1
  3091                           
  3092                           ; Switch on 2 bytes has been partitioned into a top level switch of size 1, and 1 sub-sw
      +                          itches
  3093                           ; Switch size 1, requested type "simple"
  3094                           ; Number of cases is 1, Range of values is 0 to 0
  3095                           ; switch strategies available:
  3096                           ; Name         Instructions Cycles
  3097                           ; simple_byte            4     3 (average)
  3098                           ; direct_byte           11     8 (fixed)
  3099                           ; jumptable            260     6 (fixed)
  3100                           ;	Chosen strategy is simple_byte
  3101  0B71  0874               	movf	??_set_time_for_program+1,w
  3102  0B72  3A00               	xorlw	0	; case 0
  3103  0B73  1903               	skipnz
  3104  0B74  2B76               	goto	l4769
  3105  0B75  2C0B               	goto	l251
  3106  0B76                     l4769:
  3107                           
  3108                           ; Switch size 1, requested type "simple"
  3109                           ; Number of cases is 5, Range of values is 0 to 4
  3110                           ; switch strategies available:
  3111                           ; Name         Instructions Cycles
  3112                           ; simple_byte           16     9 (average)
  3113                           ; direct_byte           23     8 (fixed)
  3114                           ; jumptable            260     6 (fixed)
  3115                           ;	Chosen strategy is simple_byte
  3116  0B76  0873               	movf	??_set_time_for_program,w
  3117  0B77  3A00               	xorlw	0	; case 0
  3118  0B78  1903               	skipnz
  3119  0B79  2B61               	goto	l4271
  3120  0B7A  3A01               	xorlw	1	; case 1
  3121  0B7B  1903               	skipnz
  3122  0B7C  2B5A               	goto	l4267
  3123  0B7D  3A03               	xorlw	3	; case 2
  3124  0B7E  1903               	skipnz
  3125  0B7F  2B61               	goto	l4271
  3126  0B80  3A01               	xorlw	1	; case 3
  3127  0B81  1903               	skipnz
  3128  0B82  2B69               	goto	l4273
  3129  0B83  3A07               	xorlw	7	; case 4
  3130  0B84  1903               	skipnz
  3131  0B85  2B69               	goto	l4273
  3132  0B86  2C0B               	goto	l251
  3133  0B87                     l4279:
  3134                           
  3135                           ;main.c: 310:             switch(water_level_index)
  3136  0B87  3012               	movlw	18
  3137  0B88  00F3               	movwf	??_set_time_for_program
  3138  0B89  0873               	movf	??_set_time_for_program,w
  3139  0B8A  00F8               	movwf	_sec
  3140  0B8B                     l4281:
  3141                           
  3142                           ;main.c: 311:             {
  3143  0B8B  1283               	bcf	3,5	;RP0=0, select bank0
  3144  0B8C  1303               	bcf	3,6	;RP1=0, select bank0
  3145  0B8D  01EA               	clrf	_min
  3146  0B8E  2B8F               	goto	l4283
  3147  0B8F                     l238:	
  3148                           ;main.c: 314:                     sec = 16;
  3149                           
  3150  0B8F                     l4283:
  3151                           
  3152                           ;main.c: 316:                 case 0:
  3153  0B8F  3014               	movlw	20
  3154  0B90  00F3               	movwf	??_set_time_for_program
  3155  0B91  0873               	movf	??_set_time_for_program,w
  3156  0B92  00F8               	movwf	_sec
  3157                           
  3158                           ;main.c: 317:                 case 2:
  3159  0B93  1283               	bcf	3,5	;RP0=0, select bank0
  3160  0B94  1303               	bcf	3,6	;RP1=0, select bank0
  3161  0B95  01EA               	clrf	_min
  3162                           
  3163                           ;main.c: 318:                     sec = 21;
  3164  0B96  2C0B               	goto	l251
  3165  0B97                     l4285:
  3166  0B97  0879               	movf	_water_level_index,w
  3167  0B98  00F3               	movwf	??_set_time_for_program
  3168  0B99  01F4               	clrf	??_set_time_for_program+1
  3169                           
  3170                           ; Switch on 2 bytes has been partitioned into a top level switch of size 1, and 1 sub-sw
      +                          itches
  3171                           ; Switch size 1, requested type "simple"
  3172                           ; Number of cases is 1, Range of values is 0 to 0
  3173                           ; switch strategies available:
  3174                           ; Name         Instructions Cycles
  3175                           ; simple_byte            4     3 (average)
  3176                           ; direct_byte           11     8 (fixed)
  3177                           ; jumptable            260     6 (fixed)
  3178                           ;	Chosen strategy is simple_byte
  3179  0B9A  0874               	movf	??_set_time_for_program+1,w
  3180  0B9B  3A00               	xorlw	0	; case 0
  3181  0B9C  1903               	skipnz
  3182  0B9D  2B9F               	goto	l4771
  3183  0B9E  2C0B               	goto	l251
  3184  0B9F                     l4771:
  3185                           
  3186                           ; Switch size 1, requested type "simple"
  3187                           ; Number of cases is 5, Range of values is 0 to 4
  3188                           ; switch strategies available:
  3189                           ; Name         Instructions Cycles
  3190                           ; simple_byte           16     9 (average)
  3191                           ; direct_byte           23     8 (fixed)
  3192                           ; jumptable            260     6 (fixed)
  3193                           ;	Chosen strategy is simple_byte
  3194  0B9F  0873               	movf	??_set_time_for_program,w
  3195  0BA0  3A00               	xorlw	0	; case 0
  3196  0BA1  1903               	skipnz
  3197  0BA2  2B8F               	goto	l238
  3198  0BA3  3A01               	xorlw	1	; case 1
  3199  0BA4  1903               	skipnz
  3200  0BA5  2B87               	goto	l4279
  3201  0BA6  3A03               	xorlw	3	; case 2
  3202  0BA7  1903               	skipnz
  3203  0BA8  2B8F               	goto	l4283
  3204  0BA9  3A01               	xorlw	1	; case 3
  3205  0BAA  1903               	skipnz
  3206  0BAB  2B8F               	goto	l4283
  3207  0BAC  3A07               	xorlw	7	; case 4
  3208  0BAD  1903               	skipnz
  3209  0BAE  2B8F               	goto	l4283
  3210  0BAF  2C0B               	goto	l251
  3211  0BB0                     l4287:
  3212                           
  3213                           ;main.c: 321:                 case 3:
  3214  0BB0  3006               	movlw	6
  3215  0BB1  00F3               	movwf	??_set_time_for_program
  3216  0BB2  0873               	movf	??_set_time_for_program,w
  3217  0BB3  00F8               	movwf	_sec
  3218                           
  3219                           ;main.c: 322:                 case 4:
  3220  0BB4  2C0B               	goto	l251
  3221  0BB5                     l4289:
  3222                           
  3223                           ;main.c: 329: 
  3224  0BB5  3010               	movlw	16
  3225  0BB6  00F3               	movwf	??_set_time_for_program
  3226  0BB7  0873               	movf	??_set_time_for_program,w
  3227  0BB8  00F8               	movwf	_sec
  3228  0BB9                     l4291:
  3229                           
  3230                           ;main.c: 330: }
  3231  0BB9  1283               	bcf	3,5	;RP0=0, select bank0
  3232  0BBA  1303               	bcf	3,6	;RP1=0, select bank0
  3233  0BBB  01EA               	clrf	_min
  3234  0BBC                     l4293:
  3235                           
  3236                           ;main.c: 333: 
  3237  0BBC  3015               	movlw	21
  3238  0BBD  00F3               	movwf	??_set_time_for_program
  3239  0BBE  0873               	movf	??_set_time_for_program,w
  3240  0BBF  00F8               	movwf	_sec
  3241                           
  3242                           ;main.c: 334: void door_status_check(void)
  3243  0BC0  1283               	bcf	3,5	;RP0=0, select bank0
  3244  0BC1  1303               	bcf	3,6	;RP1=0, select bank0
  3245  0BC2  01EA               	clrf	_min
  3246                           
  3247                           ;main.c: 335: {
  3248  0BC3  2C0B               	goto	l251
  3249  0BC4                     l4299:
  3250  0BC4  0879               	movf	_water_level_index,w
  3251  0BC5  00F3               	movwf	??_set_time_for_program
  3252  0BC6  01F4               	clrf	??_set_time_for_program+1
  3253                           
  3254                           ; Switch on 2 bytes has been partitioned into a top level switch of size 1, and 1 sub-sw
      +                          itches
  3255                           ; Switch size 1, requested type "simple"
  3256                           ; Number of cases is 1, Range of values is 0 to 0
  3257                           ; switch strategies available:
  3258                           ; Name         Instructions Cycles
  3259                           ; simple_byte            4     3 (average)
  3260                           ; direct_byte           11     8 (fixed)
  3261                           ; jumptable            260     6 (fixed)
  3262                           ;	Chosen strategy is simple_byte
  3263  0BC7  0874               	movf	??_set_time_for_program+1,w
  3264  0BC8  3A00               	xorlw	0	; case 0
  3265  0BC9  1903               	skipnz
  3266  0BCA  2BCC               	goto	l4773
  3267  0BCB  2C0B               	goto	l251
  3268  0BCC                     l4773:
  3269                           
  3270                           ; Switch size 1, requested type "simple"
  3271                           ; Number of cases is 5, Range of values is 0 to 4
  3272                           ; switch strategies available:
  3273                           ; Name         Instructions Cycles
  3274                           ; simple_byte           16     9 (average)
  3275                           ; direct_byte           23     8 (fixed)
  3276                           ; jumptable            260     6 (fixed)
  3277                           ;	Chosen strategy is simple_byte
  3278  0BCC  0873               	movf	??_set_time_for_program,w
  3279  0BCD  3A00               	xorlw	0	; case 0
  3280  0BCE  1903               	skipnz
  3281  0BCF  2BBC               	goto	l4293
  3282  0BD0  3A01               	xorlw	1	; case 1
  3283  0BD1  1903               	skipnz
  3284  0BD2  2BB5               	goto	l4289
  3285  0BD3  3A03               	xorlw	3	; case 2
  3286  0BD4  1903               	skipnz
  3287  0BD5  2BBC               	goto	l4293
  3288  0BD6  3A01               	xorlw	1	; case 3
  3289  0BD7  1903               	skipnz
  3290  0BD8  2B1C               	goto	l4245
  3291  0BD9  3A07               	xorlw	7	; case 4
  3292  0BDA  1903               	skipnz
  3293  0BDB  2B1C               	goto	l4245
  3294  0BDC  2C0B               	goto	l251
  3295  0BDD                     l4303:
  3296  0BDD  087A               	movf	_program_no,w
  3297  0BDE  00F3               	movwf	??_set_time_for_program
  3298  0BDF  01F4               	clrf	??_set_time_for_program+1
  3299                           
  3300                           ; Switch on 2 bytes has been partitioned into a top level switch of size 1, and 1 sub-sw
      +                          itches
  3301                           ; Switch size 1, requested type "simple"
  3302                           ; Number of cases is 1, Range of values is 0 to 0
  3303                           ; switch strategies available:
  3304                           ; Name         Instructions Cycles
  3305                           ; simple_byte            4     3 (average)
  3306                           ; direct_byte           11     8 (fixed)
  3307                           ; jumptable            260     6 (fixed)
  3308                           ;	Chosen strategy is simple_byte
  3309  0BE0  0874               	movf	??_set_time_for_program+1,w
  3310  0BE1  3A00               	xorlw	0	; case 0
  3311  0BE2  1903               	skipnz
  3312  0BE3  2BE5               	goto	l4775
  3313  0BE4  2C0B               	goto	l251
  3314  0BE5                     l4775:
  3315                           
  3316                           ; Switch size 1, requested type "simple"
  3317                           ; Number of cases is 12, Range of values is 0 to 11
  3318                           ; switch strategies available:
  3319                           ; Name         Instructions Cycles
  3320                           ; simple_byte           37    19 (average)
  3321                           ; direct_byte           44     8 (fixed)
  3322                           ; jumptable            260     6 (fixed)
  3323                           ;	Chosen strategy is simple_byte
  3324  0BE5  0873               	movf	??_set_time_for_program,w
  3325  0BE6  3A00               	xorlw	0	; case 0
  3326  0BE7  1903               	skipnz
  3327  0BE8  2AD6               	goto	l4231
  3328  0BE9  3A01               	xorlw	1	; case 1
  3329  0BEA  1903               	skipnz
  3330  0BEB  2B03               	goto	l4243
  3331  0BEC  3A03               	xorlw	3	; case 2
  3332  0BED  1903               	skipnz
  3333  0BEE  2B26               	goto	l4253
  3334  0BEF  3A01               	xorlw	1	; case 3
  3335  0BF0  1903               	skipnz
  3336  0BF1  2B3F               	goto	l4255
  3337  0BF2  3A07               	xorlw	7	; case 4
  3338  0BF3  1903               	skipnz
  3339  0BF4  2B48               	goto	l4259
  3340  0BF5  3A01               	xorlw	1	; case 5
  3341  0BF6  1903               	skipnz
  3342  0BF7  2B50               	goto	l223
  3343  0BF8  3A03               	xorlw	3	; case 6
  3344  0BF9  1903               	skipnz
  3345  0BFA  2B55               	goto	l4265
  3346  0BFB  3A01               	xorlw	1	; case 7
  3347  0BFC  1903               	skipnz
  3348  0BFD  2B6E               	goto	l4277
  3349  0BFE  3A0F               	xorlw	15	; case 8
  3350  0BFF  1903               	skipnz
  3351  0C00  2B97               	goto	l4285
  3352  0C01  3A01               	xorlw	1	; case 9
  3353  0C02  1903               	skipnz
  3354  0C03  2BB0               	goto	l4287
  3355  0C04  3A03               	xorlw	3	; case 10
  3356  0C05  1903               	skipnz
  3357  0C06  2BC4               	goto	l4299
  3358  0C07  3A01               	xorlw	1	; case 11
  3359  0C08  1903               	skipnz
  3360  0C09  2BC4               	goto	l4299
  3361  0C0A  2C0B               	goto	l251
  3362  0C0B                     l251:
  3363  0C0B  0008               	return
  3364  0C0C                     __end_of_set_time_for_program:
  3365                           
  3366                           	psect	text4
  3367  003D                     __ptext4:	
  3368 ;; *************** function _run_program *****************
  3369 ;; Defined at:
  3370 ;;		line 380 in file "main.c"
  3371 ;; Parameters:    Size  Location     Type
  3372 ;;  key             1    wreg     unsigned char 
  3373 ;; Auto vars:     Size  Location     Type
  3374 ;;  key             1   63[BANK0 ] unsigned char 
  3375 ;; Return value:  Size  Location     Type
  3376 ;;                  1    wreg      void 
  3377 ;; Registers used:
  3378 ;;		wreg, fsr0l, fsr0h, status,2, status,0, btemp+1, pclath, cstack
  3379 ;; Tracked objects:
  3380 ;;		On entry : 0/0
  3381 ;;		On exit  : 0/0
  3382 ;;		Unchanged: 0/0
  3383 ;; Data sizes:     COMMON   BANK0   BANK1   BANK3   BANK2
  3384 ;;      Params:         0       0       0       0       0
  3385 ;;      Locals:         0       1       0       0       0
  3386 ;;      Temps:          0       7       0       0       0
  3387 ;;      Totals:         0       8       0       0       0
  3388 ;;Total ram usage:        8 bytes
  3389 ;; Hardware stack levels used: 1
  3390 ;; Hardware stack levels required when called: 4
  3391 ;; This function calls:
  3392 ;;		___awdiv
  3393 ;;		___awmod
  3394 ;;		___flge
  3395 ;;		___flmul
  3396 ;;		___flsub
  3397 ;;		___fltol
  3398 ;;		___wmul
  3399 ;;		___xxtofl
  3400 ;;		_clcd_print
  3401 ;;		_clcd_putch
  3402 ;;		_clear_screen
  3403 ;;		_door_status_check
  3404 ;; This function is called by:
  3405 ;;		_main
  3406 ;; This function uses a non-reentrant model
  3407 ;;
  3408                           
  3409                           
  3410                           ;psect for function _run_program
  3411  003D                     _run_program:
  3412                           
  3413                           ;incstack = 0
  3414                           ; Regs used in _run_program: [wreg-fsr0h+status,2+status,0+btemp+1+pclath+cstack]
  3415                           ;run_program@key stored from wreg
  3416  003D  1283               	bcf	3,5	;RP0=0, select bank0
  3417  003E  1303               	bcf	3,6	;RP1=0, select bank0
  3418  003F  00DF               	movwf	run_program@key
  3419  0040                     l4393:
  3420                           
  3421                           ;main.c: 380:             clcd_putch((sec/10)+'0',(0xC0 + 9));;main.c: 381:             
      +                          clcd_putch((sec%10)+'0',(0xC0 + 10));;main.c: 382:             clcd_print("(MM:SS)",(0x9
      +                          0 + 5));
  3422  0040  160A  118A  25CF  120A  118A  	fcall	_door_status_check
  3423  0045                     l4395:
  3424                           
  3425                           ;main.c: 383:             _delay((unsigned long)((2000)*(20000000/4000.0)));;main.c: 384
      +                          : 
  3426  0045  3012               	movlw	18
  3427  0046  1683               	bsf	3,5	;RP0=1, select bank1
  3428  0047  1303               	bcf	3,6	;RP1=0, select bank1
  3429  0048  064B               	xorwf	_reset_mode^(0+128),w
  3430  0049  1D03               	btfss	3,2
  3431  004A  284C               	goto	u5601
  3432  004B  284D               	goto	u5600
  3433  004C                     u5601:
  3434  004C  2A0D               	goto	l4437
  3435  004D                     u5600:
  3436  004D                     l4397:
  3437                           
  3438                           ;main.c: 385: ;main.c: 386:             clear_screen();
  3439  004D  160A  118A  234D  120A  118A  	fcall	_clear_screen
  3440  0052                     l4399:
  3441                           
  3442                           ;main.c: 387:             clcd_print("Function -",(0x80 + 0));
  3443  0052  3057               	movlw	low (STR_33| (0+32768))
  3444  0053  1283               	bcf	3,5	;RP0=0, select bank0
  3445  0054  1303               	bcf	3,6	;RP1=0, select bank0
  3446  0055  00A0               	movwf	clcd_print@str
  3447  0056  3091               	movlw	high (STR_33| (0+32768))
  3448  0057  00A1               	movwf	clcd_print@str+1
  3449  0058  3080               	movlw	128
  3450  0059  00D8               	movwf	??_run_program
  3451  005A  0858               	movf	??_run_program,w
  3452  005B  00A2               	movwf	clcd_print@addr
  3453  005C  160A  118A  2454  120A  118A  	fcall	_clcd_print
  3454  0061                     l4401:
  3455                           
  3456                           ;main.c: 388:             clcd_print("TIME",(0xC0 + 0));
  3457  0061  087A               	movf	_program_no,w
  3458  0062  1283               	bcf	3,5	;RP0=0, select bank0
  3459  0063  1303               	bcf	3,6	;RP1=0, select bank0
  3460  0064  00D8               	movwf	??_run_program
  3461  0065  0758               	addwf	??_run_program,w
  3462  0066  3EA0               	addlw	(low (_washing_prog| 0))& (0+255)
  3463  0067  0084               	movwf	4
  3464  0068  1383               	bcf	3,7	;select IRP bank1
  3465  0069  0800               	movf	0,w
  3466  006A  00A0               	movwf	clcd_print@str
  3467  006B  0A84               	incf	4,f
  3468  006C  0800               	movf	0,w
  3469  006D  0384               	decf	4,f
  3470  006E  00A1               	movwf	clcd_print@str+1
  3471  006F  3086               	movlw	134
  3472  0070  00DA               	movwf	??_run_program+2
  3473  0071  085A               	movf	??_run_program+2,w
  3474  0072  00A2               	movwf	clcd_print@addr
  3475  0073  160A  118A  2454  120A  118A  	fcall	_clcd_print
  3476  0078                     l4403:
  3477                           
  3478                           ;main.c: 389:             clcd_print("5-START  6-PAUSE", (0xD0 + 0));
  3479  0078  3072               	movlw	low (STR_34| (0+32768))
  3480  0079  1283               	bcf	3,5	;RP0=0, select bank0
  3481  007A  1303               	bcf	3,6	;RP1=0, select bank0
  3482  007B  00A0               	movwf	clcd_print@str
  3483  007C  3091               	movlw	high (STR_34| (0+32768))
  3484  007D  00A1               	movwf	clcd_print@str+1
  3485  007E  30C0               	movlw	192
  3486  007F  00D8               	movwf	??_run_program
  3487  0080  0858               	movf	??_run_program,w
  3488  0081  00A2               	movwf	clcd_print@addr
  3489  0082  160A  118A  2454  120A  118A  	fcall	_clcd_print
  3490  0087                     l4405:
  3491                           
  3492                           ;main.c: 392:             time = total_time = (min*60+sec);
  3493  0087  30C6               	movlw	198
  3494  0088  1283               	bcf	3,5	;RP0=0, select bank0
  3495  0089  1303               	bcf	3,6	;RP1=0, select bank0
  3496  008A  00D8               	movwf	??_run_program
  3497  008B  0858               	movf	??_run_program,w
  3498  008C  00A4               	movwf	clcd_putch@addr
  3499  008D  300A               	movlw	10
  3500  008E  00F3               	movwf	___awdiv@divisor
  3501  008F  3000               	movlw	0
  3502  0090  00F4               	movwf	___awdiv@divisor+1
  3503  0091  086A               	movf	_min,w
  3504  0092  00D9               	movwf	??_run_program+1
  3505  0093  01DA               	clrf	??_run_program+2
  3506  0094  0859               	movf	??_run_program+1,w
  3507  0095  00F5               	movwf	___awdiv@dividend
  3508  0096  085A               	movf	??_run_program+2,w
  3509  0097  00F6               	movwf	___awdiv@dividend+1
  3510  0098  160A  118A  2637  120A  118A  	fcall	___awdiv
  3511  009D  0873               	movf	?___awdiv,w
  3512  009E  3E30               	addlw	48
  3513  009F  160A  118A  236D  120A  118A  	fcall	_clcd_putch
  3514  00A4                     l4407:
  3515                           
  3516                           ;main.c: 393:             wash_time = (int) (total_time *0.46);
  3517  00A4  30C7               	movlw	199
  3518  00A5  1283               	bcf	3,5	;RP0=0, select bank0
  3519  00A6  1303               	bcf	3,6	;RP1=0, select bank0
  3520  00A7  00D8               	movwf	??_run_program
  3521  00A8  0858               	movf	??_run_program,w
  3522  00A9  00A4               	movwf	clcd_putch@addr
  3523  00AA  300A               	movlw	10
  3524  00AB  00F3               	movwf	___awmod@divisor
  3525  00AC  3000               	movlw	0
  3526  00AD  00F4               	movwf	___awmod@divisor+1
  3527  00AE  086A               	movf	_min,w
  3528  00AF  00D9               	movwf	??_run_program+1
  3529  00B0  01DA               	clrf	??_run_program+2
  3530  00B1  0859               	movf	??_run_program+1,w
  3531  00B2  00F5               	movwf	___awmod@dividend
  3532  00B3  085A               	movf	??_run_program+2,w
  3533  00B4  00F6               	movwf	___awmod@dividend+1
  3534  00B5  160A  118A  2515  120A  118A  	fcall	___awmod
  3535  00BA  0873               	movf	?___awmod,w
  3536  00BB  3E30               	addlw	48
  3537  00BC  160A  118A  236D  120A  118A  	fcall	_clcd_putch
  3538  00C1                     l4409:
  3539                           
  3540                           ;main.c: 394:             rinse_time =(int) (total_time *0.12);
  3541  00C1  30C8               	movlw	200
  3542  00C2  1283               	bcf	3,5	;RP0=0, select bank0
  3543  00C3  1303               	bcf	3,6	;RP1=0, select bank0
  3544  00C4  00D8               	movwf	??_run_program
  3545  00C5  0858               	movf	??_run_program,w
  3546  00C6  00A4               	movwf	clcd_putch@addr
  3547  00C7  303A               	movlw	58
  3548  00C8  160A  118A  236D  120A  118A  	fcall	_clcd_putch
  3549  00CD                     l4411:
  3550                           
  3551                           ;main.c: 395:             spin_time = (total_time - wash_time - rinse_time);
  3552  00CD  30C9               	movlw	201
  3553  00CE  1283               	bcf	3,5	;RP0=0, select bank0
  3554  00CF  1303               	bcf	3,6	;RP1=0, select bank0
  3555  00D0  00D8               	movwf	??_run_program
  3556  00D1  0858               	movf	??_run_program,w
  3557  00D2  00A4               	movwf	clcd_putch@addr
  3558  00D3  300A               	movlw	10
  3559  00D4  00F3               	movwf	___awdiv@divisor
  3560  00D5  3000               	movlw	0
  3561  00D6  00F4               	movwf	___awdiv@divisor+1
  3562  00D7  0878               	movf	_sec,w
  3563  00D8  00D9               	movwf	??_run_program+1
  3564  00D9  01DA               	clrf	??_run_program+2
  3565  00DA  0859               	movf	??_run_program+1,w
  3566  00DB  00F5               	movwf	___awdiv@dividend
  3567  00DC  085A               	movf	??_run_program+2,w
  3568  00DD  00F6               	movwf	___awdiv@dividend+1
  3569  00DE  160A  118A  2637  120A  118A  	fcall	___awdiv
  3570  00E3  0873               	movf	?___awdiv,w
  3571  00E4  3E30               	addlw	48
  3572  00E5  160A  118A  236D  120A  118A  	fcall	_clcd_putch
  3573  00EA                     l4413:
  3574                           
  3575                           ;main.c: 396: 
  3576  00EA  30CA               	movlw	202
  3577  00EB  1283               	bcf	3,5	;RP0=0, select bank0
  3578  00EC  1303               	bcf	3,6	;RP1=0, select bank0
  3579  00ED  00D8               	movwf	??_run_program
  3580  00EE  0858               	movf	??_run_program,w
  3581  00EF  00A4               	movwf	clcd_putch@addr
  3582  00F0  300A               	movlw	10
  3583  00F1  00F3               	movwf	___awmod@divisor
  3584  00F2  3000               	movlw	0
  3585  00F3  00F4               	movwf	___awmod@divisor+1
  3586  00F4  0878               	movf	_sec,w
  3587  00F5  00D9               	movwf	??_run_program+1
  3588  00F6  01DA               	clrf	??_run_program+2
  3589  00F7  0859               	movf	??_run_program+1,w
  3590  00F8  00F5               	movwf	___awmod@dividend
  3591  00F9  085A               	movf	??_run_program+2,w
  3592  00FA  00F6               	movwf	___awmod@dividend+1
  3593  00FB  160A  118A  2515  120A  118A  	fcall	___awmod
  3594  0100  0873               	movf	?___awmod,w
  3595  0101  3E30               	addlw	48
  3596  0102  160A  118A  236D  120A  118A  	fcall	_clcd_putch
  3597                           
  3598                           ;main.c: 397: 
  3599  0107  304F               	movlw	low (STR_35| (0+32768))
  3600  0108  1283               	bcf	3,5	;RP0=0, select bank0
  3601  0109  1303               	bcf	3,6	;RP1=0, select bank0
  3602  010A  00A0               	movwf	clcd_print@str
  3603  010B  3091               	movlw	high (STR_35| (0+32768))
  3604  010C  00A1               	movwf	clcd_print@str+1
  3605  010D  3095               	movlw	149
  3606  010E  00D8               	movwf	??_run_program
  3607  010F  0858               	movf	??_run_program,w
  3608  0110  00A2               	movwf	clcd_print@addr
  3609  0111  160A  118A  2454  120A  118A  	fcall	_clcd_print
  3610  0116                     l4415:
  3611                           
  3612                           ;main.c: 398:             TMR2ON = 1;
  3613  0116  3033               	movlw	51
  3614  0117  1283               	bcf	3,5	;RP0=0, select bank0
  3615  0118  1303               	bcf	3,6	;RP1=0, select bank0
  3616  0119  00DA               	movwf	??_run_program+2
  3617  011A  30BB               	movlw	187
  3618  011B  00D9               	movwf	??_run_program+1
  3619  011C  30DF               	movlw	223
  3620  011D  00D8               	movwf	??_run_program
  3621  011E                     u5817:
  3622  011E  0BD8               	decfsz	??_run_program,f
  3623  011F  291E               	goto	u5817
  3624  0120  0BD9               	decfsz	??_run_program+1,f
  3625  0121  291E               	goto	u5817
  3626  0122  0BDA               	decfsz	??_run_program+2,f
  3627  0123  291E               	goto	u5817
  3628  0124                     l4417:
  3629                           
  3630                           ;main.c: 401: 
  3631  0124  160A  118A  234D  120A  118A  	fcall	_clear_screen
  3632  0129                     l4419:
  3633                           
  3634                           ;main.c: 402: 
  3635  0129  30ED               	movlw	low (STR_30| (0+32768))
  3636  012A  1283               	bcf	3,5	;RP0=0, select bank0
  3637  012B  1303               	bcf	3,6	;RP1=0, select bank0
  3638  012C  00A0               	movwf	clcd_print@str
  3639  012D  3090               	movlw	high (STR_30| (0+32768))
  3640  012E  00A1               	movwf	clcd_print@str+1
  3641  012F  3080               	movlw	128
  3642  0130  00D8               	movwf	??_run_program
  3643  0131  0858               	movf	??_run_program,w
  3644  0132  00A2               	movwf	clcd_print@addr
  3645  0133  160A  118A  2454  120A  118A  	fcall	_clcd_print
  3646  0138                     l4421:
  3647                           
  3648                           ;main.c: 403: 
  3649  0138  3084               	movlw	low (STR_31| (0+32768))
  3650  0139  1283               	bcf	3,5	;RP0=0, select bank0
  3651  013A  1303               	bcf	3,6	;RP1=0, select bank0
  3652  013B  00A0               	movwf	clcd_print@str
  3653  013C  3091               	movlw	high (STR_31| (0+32768))
  3654  013D  00A1               	movwf	clcd_print@str+1
  3655  013E  30C0               	movlw	192
  3656  013F  00D8               	movwf	??_run_program
  3657  0140  0858               	movf	??_run_program,w
  3658  0141  00A2               	movwf	clcd_print@addr
  3659  0142  160A  118A  2454  120A  118A  	fcall	_clcd_print
  3660  0147                     l4423:
  3661                           
  3662                           ;main.c: 404:         }
  3663  0147  3044               	movlw	low (STR_32| (0+32768))
  3664  0148  1283               	bcf	3,5	;RP0=0, select bank0
  3665  0149  1303               	bcf	3,6	;RP1=0, select bank0
  3666  014A  00A0               	movwf	clcd_print@str
  3667  014B  3090               	movlw	high (STR_32| (0+32768))
  3668  014C  00A1               	movwf	clcd_print@str+1
  3669  014D  30D0               	movlw	208
  3670  014E  00D8               	movwf	??_run_program
  3671  014F  0858               	movf	??_run_program,w
  3672  0150  00A2               	movwf	clcd_print@addr
  3673  0151  160A  118A  2454  120A  118A  	fcall	_clcd_print
  3674  0156                     l4425:
  3675                           
  3676                           ;main.c: 407: 
  3677  0156  1283               	bcf	3,5	;RP0=0, select bank0
  3678  0157  1303               	bcf	3,6	;RP1=0, select bank0
  3679  0158  086A               	movf	_min,w
  3680  0159  00D8               	movwf	??_run_program
  3681  015A  01D9               	clrf	??_run_program+1
  3682  015B  0858               	movf	??_run_program,w
  3683  015C  00F3               	movwf	___wmul@multiplier
  3684  015D  0859               	movf	??_run_program+1,w
  3685  015E  00F4               	movwf	___wmul@multiplier+1
  3686  015F  303C               	movlw	60
  3687  0160  00F5               	movwf	___wmul@multiplicand
  3688  0161  3000               	movlw	0
  3689  0162  00F6               	movwf	___wmul@multiplicand+1
  3690  0163  160A  118A  2429  120A  118A  	fcall	___wmul
  3691  0168  0878               	movf	_sec,w
  3692  0169  0773               	addwf	?___wmul,w
  3693  016A  1283               	bcf	3,5	;RP0=0, select bank0
  3694  016B  1303               	bcf	3,6	;RP1=0, select bank0
  3695  016C  00E4               	movwf	run_program@total_time
  3696  016D  3000               	movlw	0
  3697  016E  1803               	skipnc
  3698  016F  3001               	movlw	1
  3699  0170  0774               	addwf	?___wmul+1,w
  3700  0171  00E5               	movwf	run_program@total_time+1
  3701  0172  0865               	movf	run_program@total_time+1,w
  3702  0173  00E3               	movwf	run_program@time+1
  3703  0174  0864               	movf	run_program@total_time,w
  3704  0175  00E2               	movwf	run_program@time
  3705  0176                     l4427:
  3706                           
  3707                           ;main.c: 408:     if(key == 0x1F)
  3708  0176  0864               	movf	run_program@total_time,w
  3709  0177  00F3               	movwf	___xxtofl@val
  3710  0178  0865               	movf	run_program@total_time+1,w
  3711  0179  00F4               	movwf	___xxtofl@val+1
  3712  017A  3000               	movlw	0
  3713  017B  1BF4               	btfsc	___xxtofl@val+1,7
  3714  017C  30FF               	movlw	255
  3715  017D  00F5               	movwf	___xxtofl@val+2
  3716  017E  00F6               	movwf	___xxtofl@val+3
  3717  017F  3001               	movlw	1
  3718  0180  160A  118A  2744  120A  118A  	fcall	___xxtofl
  3719  0185  0876               	movf	?___xxtofl+3,w
  3720  0186  1283               	bcf	3,5	;RP0=0, select bank0
  3721  0187  1303               	bcf	3,6	;RP1=0, select bank0
  3722  0188  00B1               	movwf	___flmul@a+3
  3723  0189  0875               	movf	?___xxtofl+2,w
  3724  018A  00B0               	movwf	___flmul@a+2
  3725  018B  0874               	movf	?___xxtofl+1,w
  3726  018C  00AF               	movwf	___flmul@a+1
  3727  018D  0873               	movf	?___xxtofl,w
  3728  018E  00AE               	movwf	___flmul@a
  3729  018F  303E               	movlw	62
  3730  0190  00AD               	movwf	___flmul@b+3
  3731  0191  30EB               	movlw	235
  3732  0192  00AC               	movwf	___flmul@b+2
  3733  0193  3085               	movlw	133
  3734  0194  00AB               	movwf	___flmul@b+1
  3735  0195  301F               	movlw	31
  3736  0196  00AA               	movwf	___flmul@b
  3737  0197  120A  118A  2439  120A  118A  	fcall	___flmul
  3738  019C  1283               	bcf	3,5	;RP0=0, select bank0
  3739  019D  1303               	bcf	3,6	;RP1=0, select bank0
  3740  019E  082D               	movf	?___flmul+3,w
  3741  019F  00C7               	movwf	___fltol@f1+3
  3742  01A0  082C               	movf	?___flmul+2,w
  3743  01A1  00C6               	movwf	___fltol@f1+2
  3744  01A2  082B               	movf	?___flmul+1,w
  3745  01A3  00C5               	movwf	___fltol@f1+1
  3746  01A4  082A               	movf	?___flmul,w
  3747  01A5  00C4               	movwf	___fltol@f1
  3748  01A6  120A  158A  2003  120A  118A  	fcall	___fltol
  3749  01AB  1283               	bcf	3,5	;RP0=0, select bank0
  3750  01AC  1303               	bcf	3,6	;RP1=0, select bank0
  3751  01AD  0845               	movf	?___fltol+1,w
  3752  01AE  00E9               	movwf	_wash_time+1
  3753  01AF  0844               	movf	?___fltol,w
  3754  01B0  00E8               	movwf	_wash_time
  3755  01B1                     l4429:
  3756                           
  3757                           ;main.c: 409:     {
  3758  01B1  0864               	movf	run_program@total_time,w
  3759  01B2  00F3               	movwf	___xxtofl@val
  3760  01B3  0865               	movf	run_program@total_time+1,w
  3761  01B4  00F4               	movwf	___xxtofl@val+1
  3762  01B5  3000               	movlw	0
  3763  01B6  1BF4               	btfsc	___xxtofl@val+1,7
  3764  01B7  30FF               	movlw	255
  3765  01B8  00F5               	movwf	___xxtofl@val+2
  3766  01B9  00F6               	movwf	___xxtofl@val+3
  3767  01BA  3001               	movlw	1
  3768  01BB  160A  118A  2744  120A  118A  	fcall	___xxtofl
  3769  01C0  0876               	movf	?___xxtofl+3,w
  3770  01C1  1283               	bcf	3,5	;RP0=0, select bank0
  3771  01C2  1303               	bcf	3,6	;RP1=0, select bank0
  3772  01C3  00B1               	movwf	___flmul@a+3
  3773  01C4  0875               	movf	?___xxtofl+2,w
  3774  01C5  00B0               	movwf	___flmul@a+2
  3775  01C6  0874               	movf	?___xxtofl+1,w
  3776  01C7  00AF               	movwf	___flmul@a+1
  3777  01C8  0873               	movf	?___xxtofl,w
  3778  01C9  00AE               	movwf	___flmul@a
  3779  01CA  303D               	movlw	61
  3780  01CB  00AD               	movwf	___flmul@b+3
  3781  01CC  30F5               	movlw	245
  3782  01CD  00AC               	movwf	___flmul@b+2
  3783  01CE  30C2               	movlw	194
  3784  01CF  00AB               	movwf	___flmul@b+1
  3785  01D0  308F               	movlw	143
  3786  01D1  00AA               	movwf	___flmul@b
  3787  01D2  120A  118A  2439  120A  118A  	fcall	___flmul
  3788  01D7  1283               	bcf	3,5	;RP0=0, select bank0
  3789  01D8  1303               	bcf	3,6	;RP1=0, select bank0
  3790  01D9  082D               	movf	?___flmul+3,w
  3791  01DA  00C7               	movwf	___fltol@f1+3
  3792  01DB  082C               	movf	?___flmul+2,w
  3793  01DC  00C6               	movwf	___fltol@f1+2
  3794  01DD  082B               	movf	?___flmul+1,w
  3795  01DE  00C5               	movwf	___fltol@f1+1
  3796  01DF  082A               	movf	?___flmul,w
  3797  01E0  00C4               	movwf	___fltol@f1
  3798  01E1  120A  158A  2003  120A  118A  	fcall	___fltol
  3799  01E6  1283               	bcf	3,5	;RP0=0, select bank0
  3800  01E7  1303               	bcf	3,6	;RP1=0, select bank0
  3801  01E8  0845               	movf	?___fltol+1,w
  3802  01E9  00E7               	movwf	_rinse_time+1
  3803  01EA  0844               	movf	?___fltol,w
  3804  01EB  00E6               	movwf	_rinse_time
  3805  01EC                     l4431:
  3806                           
  3807                           ;main.c: 410:         TMR2ON = 0;
  3808  01EC  0968               	comf	_wash_time,w
  3809  01ED  00D8               	movwf	??_run_program
  3810  01EE  0969               	comf	_wash_time+1,w
  3811  01EF  00D9               	movwf	??_run_program+1
  3812  01F0  0AD8               	incf	??_run_program,f
  3813  01F1  1903               	skipnz
  3814  01F2  0AD9               	incf	??_run_program+1,f
  3815  01F3  0866               	movf	_rinse_time,w
  3816  01F4  0258               	subwf	??_run_program,w
  3817  01F5  00DA               	movwf	??_run_program+2
  3818  01F6  0867               	movf	_rinse_time+1,w
  3819  01F7  1C03               	skipc
  3820  01F8  0A67               	incf	_rinse_time+1,w
  3821  01F9  0259               	subwf	??_run_program+1,w
  3822  01FA  00DB               	movwf	??_run_program+3
  3823  01FB  0864               	movf	run_program@total_time,w
  3824  01FC  075A               	addwf	??_run_program+2,w
  3825  01FD  1683               	bsf	3,5	;RP0=1, select bank1
  3826  01FE  1303               	bcf	3,6	;RP1=0, select bank1
  3827  01FF  00C9               	movwf	_spin_time^(0+128)
  3828  0200  1283               	bcf	3,5	;RP0=0, select bank0
  3829  0201  1303               	bcf	3,6	;RP1=0, select bank0
  3830  0202  0865               	movf	run_program@total_time+1,w
  3831  0203  1803               	skipnc
  3832  0204  0A65               	incf	run_program@total_time+1,w
  3833  0205  075B               	addwf	??_run_program+3,w
  3834  0206  1683               	bsf	3,5	;RP0=1, select bank1
  3835  0207  1303               	bcf	3,6	;RP1=0, select bank1
  3836  0208  00CA               	movwf	(_spin_time+1)^(0+128)
  3837  0209                     l4433:
  3838                           
  3839                           ;main.c: 413:     }
  3840  0209  1283               	bcf	3,5	;RP0=0, select bank0
  3841  020A  1303               	bcf	3,6	;RP1=0, select bank0
  3842  020B  1512               	bsf	18,2	;volatile
  3843  020C                     l4435:
  3844                           
  3845                           ;main.c: 415:     total_time = (min*60+sec);
  3846  020C  1507               	bsf	7,2	;volatile
  3847  020D                     l4437:
  3848                           
  3849                           ;main.c: 423:        {
  3850  020D  301F               	movlw	31
  3851  020E  1283               	bcf	3,5	;RP0=0, select bank0
  3852  020F  065F               	xorwf	run_program@key,w
  3853  0210  1D03               	btfss	3,2
  3854  0211  2A13               	goto	u5611
  3855  0212  2A14               	goto	u5610
  3856  0213                     u5611:
  3857  0213  2A1A               	goto	l4443
  3858  0214                     u5610:
  3859  0214                     l4439:
  3860                           
  3861                           ;main.c: 424:            clcd_print("Rinse",(0x80 + 11));;main.c: 425:        }
  3862  0214  1112               	bcf	18,2	;volatile
  3863                           
  3864                           ;main.c: 426:        else
  3865  0215  1107               	bcf	7,2	;volatile
  3866  0216                     l4441:
  3867                           
  3868                           ;main.c: 427:            clcd_print("Spin ",(0x80 + 11));
  3869  0216  3005               	movlw	5
  3870  0217  00D8               	movwf	??_run_program
  3871  0218  0858               	movf	??_run_program,w
  3872  0219  00ED               	movwf	_operation_mode
  3873  021A                     l4443:
  3874                           
  3875                           ;main.c: 430:     {
  3876  021A  086A               	movf	_min,w
  3877  021B  00D8               	movwf	??_run_program
  3878  021C  01D9               	clrf	??_run_program+1
  3879  021D  0858               	movf	??_run_program,w
  3880  021E  00F3               	movwf	___wmul@multiplier
  3881  021F  0859               	movf	??_run_program+1,w
  3882  0220  00F4               	movwf	___wmul@multiplier+1
  3883  0221  303C               	movlw	60
  3884  0222  00F5               	movwf	___wmul@multiplicand
  3885  0223  3000               	movlw	0
  3886  0224  00F6               	movwf	___wmul@multiplicand+1
  3887  0225  160A  118A  2429  120A  118A  	fcall	___wmul
  3888  022A  0878               	movf	_sec,w
  3889  022B  0773               	addwf	?___wmul,w
  3890  022C  1283               	bcf	3,5	;RP0=0, select bank0
  3891  022D  1303               	bcf	3,6	;RP1=0, select bank0
  3892  022E  00E4               	movwf	run_program@total_time
  3893  022F  3000               	movlw	0
  3894  0230  1803               	skipnc
  3895  0231  3001               	movlw	1
  3896  0232  0774               	addwf	?___wmul+1,w
  3897  0233  00E5               	movwf	run_program@total_time+1
  3898  0234                     l4445:
  3899                           
  3900                           ;main.c: 431:         if(total_time >= (time - (0.40 * time)) )
  3901  0234  3008               	movlw	8
  3902  0235  027A               	subwf	_program_no,w
  3903  0236  1803               	skipnc
  3904  0237  2A39               	goto	u5621
  3905  0238  2A3A               	goto	u5620
  3906  0239                     u5621:
  3907  0239  2AA7               	goto	l4457
  3908  023A                     u5620:
  3909  023A                     l4447:
  3910                           
  3911                           ;main.c: 432:         {;main.c: 433:           clcd_print("Rinse",(0x80 + 11));
  3912  023A  0868               	movf	_wash_time,w
  3913  023B  0262               	subwf	run_program@time,w
  3914  023C  00D8               	movwf	??_run_program
  3915  023D  0869               	movf	_wash_time+1,w
  3916  023E  1C03               	skipc
  3917  023F  0A69               	incf	_wash_time+1,w
  3918  0240  0263               	subwf	run_program@time+1,w
  3919  0241  00D9               	movwf	??_run_program+1
  3920  0242  0865               	movf	run_program@total_time+1,w
  3921  0243  3A80               	xorlw	128
  3922  0244  00DA               	movwf	??_run_program+2
  3923  0245  0859               	movf	??_run_program+1,w
  3924  0246  3A80               	xorlw	128
  3925  0247  025A               	subwf	??_run_program+2,w
  3926  0248  1D03               	skipz
  3927  0249  2A4C               	goto	u5635
  3928  024A  0858               	movf	??_run_program,w
  3929  024B  0264               	subwf	run_program@total_time,w
  3930  024C                     u5635:
  3931  024C  1C03               	skipc
  3932  024D  2A4F               	goto	u5631
  3933  024E  2A50               	goto	u5630
  3934  024F                     u5631:
  3935  024F  2A60               	goto	l4451
  3936  0250                     u5630:
  3937  0250                     l4449:
  3938                           
  3939                           ;main.c: 434:         };main.c: 435:         else
  3940  0250  308E               	movlw	low (STR_39| (0+32768))
  3941  0251  1283               	bcf	3,5	;RP0=0, select bank0
  3942  0252  1303               	bcf	3,6	;RP1=0, select bank0
  3943  0253  00A0               	movwf	clcd_print@str
  3944  0254  3091               	movlw	high (STR_39| (0+32768))
  3945  0255  00A1               	movwf	clcd_print@str+1
  3946  0256  308B               	movlw	139
  3947  0257  00D8               	movwf	??_run_program
  3948  0258  0858               	movf	??_run_program,w
  3949  0259  00A2               	movwf	clcd_print@addr
  3950  025A  160A  118A  2454  120A  118A  	fcall	_clcd_print
  3951                           
  3952                           ;main.c: 436:            clcd_print("Spin ",(0x80 + 11));
  3953  025F  2B68               	goto	l4471
  3954  0260                     l4451:
  3955  0260  1283               	bcf	3,5	;RP0=0, select bank0
  3956  0261  1303               	bcf	3,6	;RP1=0, select bank0
  3957  0262  0968               	comf	_wash_time,w
  3958  0263  00D8               	movwf	??_run_program
  3959  0264  0969               	comf	_wash_time+1,w
  3960  0265  00D9               	movwf	??_run_program+1
  3961  0266  0AD8               	incf	??_run_program,f
  3962  0267  1903               	skipnz
  3963  0268  0AD9               	incf	??_run_program+1,f
  3964  0269  0866               	movf	_rinse_time,w
  3965  026A  0258               	subwf	??_run_program,w
  3966  026B  00DA               	movwf	??_run_program+2
  3967  026C  0867               	movf	_rinse_time+1,w
  3968  026D  1C03               	skipc
  3969  026E  0A67               	incf	_rinse_time+1,w
  3970  026F  0259               	subwf	??_run_program+1,w
  3971  0270  00DB               	movwf	??_run_program+3
  3972  0271  0862               	movf	run_program@time,w
  3973  0272  075A               	addwf	??_run_program+2,w
  3974  0273  00DC               	movwf	??_run_program+4
  3975  0274  0863               	movf	run_program@time+1,w
  3976  0275  1803               	skipnc
  3977  0276  0A63               	incf	run_program@time+1,w
  3978  0277  075B               	addwf	??_run_program+3,w
  3979  0278  00DD               	movwf	??_run_program+5
  3980  0279  0865               	movf	run_program@total_time+1,w
  3981  027A  3A80               	xorlw	128
  3982  027B  00DE               	movwf	??_run_program+6
  3983  027C  085D               	movf	??_run_program+5,w
  3984  027D  3A80               	xorlw	128
  3985  027E  025E               	subwf	??_run_program+6,w
  3986  027F  1D03               	skipz
  3987  0280  2A83               	goto	u5645
  3988  0281  085C               	movf	??_run_program+4,w
  3989  0282  0264               	subwf	run_program@total_time,w
  3990  0283                     u5645:
  3991  0283  1C03               	skipc
  3992  0284  2A86               	goto	u5641
  3993  0285  2A87               	goto	u5640
  3994  0286                     u5641:
  3995  0286  2A97               	goto	l4455
  3996  0287                     u5640:
  3997  0287                     l4453:
  3998                           
  3999                           ;main.c: 438:     else if(program_no == 9);main.c: 439:     {
  4000  0287  3078               	movlw	low (STR_40| (0+32768))
  4001  0288  1283               	bcf	3,5	;RP0=0, select bank0
  4002  0289  1303               	bcf	3,6	;RP1=0, select bank0
  4003  028A  00A0               	movwf	clcd_print@str
  4004  028B  3091               	movlw	high (STR_40| (0+32768))
  4005  028C  00A1               	movwf	clcd_print@str+1
  4006  028D  308B               	movlw	139
  4007  028E  00D8               	movwf	??_run_program
  4008  028F  0858               	movf	??_run_program,w
  4009  0290  00A2               	movwf	clcd_print@addr
  4010  0291  160A  118A  2454  120A  118A  	fcall	_clcd_print
  4011                           
  4012                           ;main.c: 440:         clcd_print("Rinse",(0x80 + 11));
  4013  0296  2B68               	goto	l4471
  4014  0297                     l4455:
  4015                           
  4016                           ;main.c: 442:     else
  4017  0297  306C               	movlw	low (STR_41| (0+32768))
  4018  0298  1283               	bcf	3,5	;RP0=0, select bank0
  4019  0299  1303               	bcf	3,6	;RP1=0, select bank0
  4020  029A  00A0               	movwf	clcd_print@str
  4021  029B  3091               	movlw	high (STR_41| (0+32768))
  4022  029C  00A1               	movwf	clcd_print@str+1
  4023  029D  308B               	movlw	139
  4024  029E  00D8               	movwf	??_run_program
  4025  029F  0858               	movf	??_run_program,w
  4026  02A0  00A2               	movwf	clcd_print@addr
  4027  02A1  160A  118A  2454  120A  118A  	fcall	_clcd_print
  4028  02A6  2B68               	goto	l4471
  4029  02A7                     l4457:
  4030  02A7  3008               	movlw	8
  4031  02A8  067A               	xorwf	_program_no,w
  4032  02A9  1D03               	btfss	3,2
  4033  02AA  2AAC               	goto	u5651
  4034  02AB  2AAD               	goto	u5650
  4035  02AC                     u5651:
  4036  02AC  2B47               	goto	l4465
  4037  02AD                     u5650:
  4038  02AD                     l4459:
  4039                           
  4040                           ;main.c: 445:     };main.c: 446: 
  4041  02AD  0864               	movf	run_program@total_time,w
  4042  02AE  00F3               	movwf	___xxtofl@val
  4043  02AF  0865               	movf	run_program@total_time+1,w
  4044  02B0  00F4               	movwf	___xxtofl@val+1
  4045  02B1  3000               	movlw	0
  4046  02B2  1BF4               	btfsc	___xxtofl@val+1,7
  4047  02B3  30FF               	movlw	255
  4048  02B4  00F5               	movwf	___xxtofl@val+2
  4049  02B5  00F6               	movwf	___xxtofl@val+3
  4050  02B6  3001               	movlw	1
  4051  02B7  160A  118A  2744  120A  118A  	fcall	___xxtofl
  4052  02BC  0876               	movf	?___xxtofl+3,w
  4053  02BD  1283               	bcf	3,5	;RP0=0, select bank0
  4054  02BE  1303               	bcf	3,6	;RP1=0, select bank0
  4055  02BF  00CF               	movwf	___flge@ff1+3
  4056  02C0  0875               	movf	?___xxtofl+2,w
  4057  02C1  00CE               	movwf	___flge@ff1+2
  4058  02C2  0874               	movf	?___xxtofl+1,w
  4059  02C3  00CD               	movwf	___flge@ff1+1
  4060  02C4  0873               	movf	?___xxtofl,w
  4061  02C5  00CC               	movwf	___flge@ff1
  4062  02C6  0862               	movf	run_program@time,w
  4063  02C7  00F3               	movwf	___xxtofl@val
  4064  02C8  0863               	movf	run_program@time+1,w
  4065  02C9  00F4               	movwf	___xxtofl@val+1
  4066  02CA  3000               	movlw	0
  4067  02CB  1BF4               	btfsc	___xxtofl@val+1,7
  4068  02CC  30FF               	movlw	255
  4069  02CD  00F5               	movwf	___xxtofl@val+2
  4070  02CE  00F6               	movwf	___xxtofl@val+3
  4071  02CF  3001               	movlw	1
  4072  02D0  160A  118A  2744  120A  118A  	fcall	___xxtofl
  4073  02D5  0876               	movf	?___xxtofl+3,w
  4074  02D6  1283               	bcf	3,5	;RP0=0, select bank0
  4075  02D7  1303               	bcf	3,6	;RP1=0, select bank0
  4076  02D8  00CB               	movwf	___flsub@b+3
  4077  02D9  0875               	movf	?___xxtofl+2,w
  4078  02DA  00CA               	movwf	___flsub@b+2
  4079  02DB  0874               	movf	?___xxtofl+1,w
  4080  02DC  00C9               	movwf	___flsub@b+1
  4081  02DD  0873               	movf	?___xxtofl,w
  4082  02DE  00C8               	movwf	___flsub@b
  4083  02DF  0862               	movf	run_program@time,w
  4084  02E0  00F3               	movwf	___xxtofl@val
  4085  02E1  0863               	movf	run_program@time+1,w
  4086  02E2  00F4               	movwf	___xxtofl@val+1
  4087  02E3  3000               	movlw	0
  4088  02E4  1BF4               	btfsc	___xxtofl@val+1,7
  4089  02E5  30FF               	movlw	255
  4090  02E6  00F5               	movwf	___xxtofl@val+2
  4091  02E7  00F6               	movwf	___xxtofl@val+3
  4092  02E8  3001               	movlw	1
  4093  02E9  160A  118A  2744  120A  118A  	fcall	___xxtofl
  4094  02EE  0876               	movf	?___xxtofl+3,w
  4095  02EF  1283               	bcf	3,5	;RP0=0, select bank0
  4096  02F0  1303               	bcf	3,6	;RP1=0, select bank0
  4097  02F1  00B1               	movwf	___flmul@a+3
  4098  02F2  0875               	movf	?___xxtofl+2,w
  4099  02F3  00B0               	movwf	___flmul@a+2
  4100  02F4  0874               	movf	?___xxtofl+1,w
  4101  02F5  00AF               	movwf	___flmul@a+1
  4102  02F6  0873               	movf	?___xxtofl,w
  4103  02F7  00AE               	movwf	___flmul@a
  4104  02F8  303E               	movlw	62
  4105  02F9  00AD               	movwf	___flmul@b+3
  4106  02FA  30CC               	movlw	204
  4107  02FB  00AC               	movwf	___flmul@b+2
  4108  02FC  30CC               	movlw	204
  4109  02FD  00AB               	movwf	___flmul@b+1
  4110  02FE  30CD               	movlw	205
  4111  02FF  00AA               	movwf	___flmul@b
  4112  0300  120A  118A  2439  120A  118A  	fcall	___flmul
  4113  0305  1283               	bcf	3,5	;RP0=0, select bank0
  4114  0306  1303               	bcf	3,6	;RP1=0, select bank0
  4115  0307  082D               	movf	?___flmul+3,w
  4116  0308  00C7               	movwf	___flsub@a+3
  4117  0309  082C               	movf	?___flmul+2,w
  4118  030A  00C6               	movwf	___flsub@a+2
  4119  030B  082B               	movf	?___flmul+1,w
  4120  030C  00C5               	movwf	___flsub@a+1
  4121  030D  082A               	movf	?___flmul,w
  4122  030E  00C4               	movwf	___flsub@a
  4123  030F  160A  118A  23DC  120A  118A  	fcall	___flsub
  4124  0314  1283               	bcf	3,5	;RP0=0, select bank0
  4125  0315  1303               	bcf	3,6	;RP1=0, select bank0
  4126  0316  0847               	movf	?___flsub+3,w
  4127  0317  00D3               	movwf	___flge@ff2+3
  4128  0318  0846               	movf	?___flsub+2,w
  4129  0319  00D2               	movwf	___flge@ff2+2
  4130  031A  0845               	movf	?___flsub+1,w
  4131  031B  00D1               	movwf	___flge@ff2+1
  4132  031C  0844               	movf	?___flsub,w
  4133  031D  00D0               	movwf	___flge@ff2
  4134  031E  160A  118A  26A0  120A  118A  	fcall	___flge
  4135  0323  1C03               	btfss	3,0
  4136  0324  2B26               	goto	u5661
  4137  0325  2B27               	goto	u5660
  4138  0326                     u5661:
  4139  0326  2B37               	goto	l4463
  4140  0327                     u5660:
  4141  0327                     l4461:
  4142                           
  4143                           ;main.c: 447:             clcd_putch((min/10)+'0',(0xC0 + 6));;main.c: 448:             
      +                          clcd_putch((min%10)+'0',(0xC0 + 7));
  4144  0327  3078               	movlw	low (STR_40| (0+32768))
  4145  0328  1283               	bcf	3,5	;RP0=0, select bank0
  4146  0329  1303               	bcf	3,6	;RP1=0, select bank0
  4147  032A  00A0               	movwf	clcd_print@str
  4148  032B  3091               	movlw	high (STR_40| (0+32768))
  4149  032C  00A1               	movwf	clcd_print@str+1
  4150  032D  308B               	movlw	139
  4151  032E  00D8               	movwf	??_run_program
  4152  032F  0858               	movf	??_run_program,w
  4153  0330  00A2               	movwf	clcd_print@addr
  4154  0331  160A  118A  2454  120A  118A  	fcall	_clcd_print
  4155                           
  4156                           ;main.c: 449:             clcd_putch(':',(0xC0 + 8));
  4157  0336  2B68               	goto	l4471
  4158  0337                     l4463:
  4159                           
  4160                           ;main.c: 451:             clcd_putch((sec%10)+'0',(0xC0 + 10));
  4161  0337  306C               	movlw	low (STR_41| (0+32768))
  4162  0338  1283               	bcf	3,5	;RP0=0, select bank0
  4163  0339  1303               	bcf	3,6	;RP1=0, select bank0
  4164  033A  00A0               	movwf	clcd_print@str
  4165  033B  3091               	movlw	high (STR_41| (0+32768))
  4166  033C  00A1               	movwf	clcd_print@str+1
  4167  033D  308B               	movlw	139
  4168  033E  00D8               	movwf	??_run_program
  4169  033F  0858               	movf	??_run_program,w
  4170  0340  00A2               	movwf	clcd_print@addr
  4171  0341  160A  118A  2454  120A  118A  	fcall	_clcd_print
  4172  0346  2B68               	goto	l4471
  4173  0347                     l4465:
  4174  0347  3009               	movlw	9
  4175  0348  067A               	xorwf	_program_no,w
  4176  0349  1D03               	btfss	3,2
  4177  034A  2B4C               	goto	u5671
  4178  034B  2B4D               	goto	u5670
  4179  034C                     u5671:
  4180  034C  2B5B               	goto	l4469
  4181  034D                     u5670:
  4182  034D                     l4467:
  4183                           
  4184                           ;main.c: 454:             {;main.c: 455: 
  4185  034D  3078               	movlw	low (STR_40| (0+32768))
  4186  034E  00A0               	movwf	clcd_print@str
  4187  034F  3091               	movlw	high (STR_40| (0+32768))
  4188  0350  00A1               	movwf	clcd_print@str+1
  4189  0351  308B               	movlw	139
  4190  0352  00D8               	movwf	??_run_program
  4191  0353  0858               	movf	??_run_program,w
  4192  0354  00A2               	movwf	clcd_print@addr
  4193  0355  160A  118A  2454  120A  118A  	fcall	_clcd_print
  4194                           
  4195                           ;main.c: 456:                 TMR2ON = 0;
  4196  035A  2B68               	goto	l4471
  4197  035B                     l4469:
  4198                           
  4199                           ;main.c: 458:                 RC2 =0;;main.c: 459: 
  4200  035B  308E               	movlw	low (STR_39| (0+32768))
  4201  035C  00A0               	movwf	clcd_print@str
  4202  035D  3091               	movlw	high (STR_39| (0+32768))
  4203  035E  00A1               	movwf	clcd_print@str+1
  4204  035F  308B               	movlw	139
  4205  0360  00D8               	movwf	??_run_program
  4206  0361  0858               	movf	??_run_program,w
  4207  0362  00A2               	movwf	clcd_print@addr
  4208  0363  160A  118A  2454  120A  118A  	fcall	_clcd_print
  4209  0368                     l4471:
  4210                           
  4211                           ;main.c: 462:                 clear_screen();
  4212  0368  30C6               	movlw	198
  4213  0369  1283               	bcf	3,5	;RP0=0, select bank0
  4214  036A  1303               	bcf	3,6	;RP1=0, select bank0
  4215  036B  00D8               	movwf	??_run_program
  4216  036C  0858               	movf	??_run_program,w
  4217  036D  00A4               	movwf	clcd_putch@addr
  4218  036E  300A               	movlw	10
  4219  036F  00F3               	movwf	___awdiv@divisor
  4220  0370  3000               	movlw	0
  4221  0371  00F4               	movwf	___awdiv@divisor+1
  4222  0372  086A               	movf	_min,w
  4223  0373  00D9               	movwf	??_run_program+1
  4224  0374  01DA               	clrf	??_run_program+2
  4225  0375  0859               	movf	??_run_program+1,w
  4226  0376  00F5               	movwf	___awdiv@dividend
  4227  0377  085A               	movf	??_run_program+2,w
  4228  0378  00F6               	movwf	___awdiv@dividend+1
  4229  0379  160A  118A  2637  120A  118A  	fcall	___awdiv
  4230  037E  0873               	movf	?___awdiv,w
  4231  037F  3E30               	addlw	48
  4232  0380  160A  118A  236D  120A  118A  	fcall	_clcd_putch
  4233  0385                     l4473:
  4234                           
  4235                           ;main.c: 463:                 clcd_print("Prog. Completed", (0x80 + 0));
  4236  0385  30C7               	movlw	199
  4237  0386  1283               	bcf	3,5	;RP0=0, select bank0
  4238  0387  1303               	bcf	3,6	;RP1=0, select bank0
  4239  0388  00D8               	movwf	??_run_program
  4240  0389  0858               	movf	??_run_program,w
  4241  038A  00A4               	movwf	clcd_putch@addr
  4242  038B  300A               	movlw	10
  4243  038C  00F3               	movwf	___awmod@divisor
  4244  038D  3000               	movlw	0
  4245  038E  00F4               	movwf	___awmod@divisor+1
  4246  038F  086A               	movf	_min,w
  4247  0390  00D9               	movwf	??_run_program+1
  4248  0391  01DA               	clrf	??_run_program+2
  4249  0392  0859               	movf	??_run_program+1,w
  4250  0393  00F5               	movwf	___awmod@dividend
  4251  0394  085A               	movf	??_run_program+2,w
  4252  0395  00F6               	movwf	___awmod@dividend+1
  4253  0396  160A  118A  2515  120A  118A  	fcall	___awmod
  4254  039B  0873               	movf	?___awmod,w
  4255  039C  3E30               	addlw	48
  4256  039D  160A  118A  236D  120A  118A  	fcall	_clcd_putch
  4257  03A2                     l4475:
  4258                           
  4259                           ;main.c: 464:                 clcd_print("Remove Cloths",(0xC0 + 0));
  4260  03A2  30C8               	movlw	200
  4261  03A3  1283               	bcf	3,5	;RP0=0, select bank0
  4262  03A4  1303               	bcf	3,6	;RP1=0, select bank0
  4263  03A5  00D8               	movwf	??_run_program
  4264  03A6  0858               	movf	??_run_program,w
  4265  03A7  00A4               	movwf	clcd_putch@addr
  4266  03A8  303A               	movlw	58
  4267  03A9  160A  118A  236D  120A  118A  	fcall	_clcd_putch
  4268  03AE                     l4477:
  4269                           
  4270                           ;main.c: 465:                 _delay((unsigned long)((2000)*(20000000/4000.0)));
  4271  03AE  30C9               	movlw	201
  4272  03AF  1283               	bcf	3,5	;RP0=0, select bank0
  4273  03B0  1303               	bcf	3,6	;RP1=0, select bank0
  4274  03B1  00D8               	movwf	??_run_program
  4275  03B2  0858               	movf	??_run_program,w
  4276  03B3  00A4               	movwf	clcd_putch@addr
  4277  03B4  300A               	movlw	10
  4278  03B5  00F3               	movwf	___awdiv@divisor
  4279  03B6  3000               	movlw	0
  4280  03B7  00F4               	movwf	___awdiv@divisor+1
  4281  03B8  0878               	movf	_sec,w
  4282  03B9  00D9               	movwf	??_run_program+1
  4283  03BA  01DA               	clrf	??_run_program+2
  4284  03BB  0859               	movf	??_run_program+1,w
  4285  03BC  00F5               	movwf	___awdiv@dividend
  4286  03BD  085A               	movf	??_run_program+2,w
  4287  03BE  00F6               	movwf	___awdiv@dividend+1
  4288  03BF  160A  118A  2637  120A  118A  	fcall	___awdiv
  4289  03C4  0873               	movf	?___awdiv,w
  4290  03C5  3E30               	addlw	48
  4291  03C6  160A  118A  236D  120A  118A  	fcall	_clcd_putch
  4292  03CB                     l4479:
  4293                           
  4294                           ;main.c: 466:                 RC1 = 0;
  4295  03CB  30CA               	movlw	202
  4296  03CC  1283               	bcf	3,5	;RP0=0, select bank0
  4297  03CD  1303               	bcf	3,6	;RP1=0, select bank0
  4298  03CE  00D8               	movwf	??_run_program
  4299  03CF  0858               	movf	??_run_program,w
  4300  03D0  00A4               	movwf	clcd_putch@addr
  4301  03D1  300A               	movlw	10
  4302  03D2  00F3               	movwf	___awmod@divisor
  4303  03D3  3000               	movlw	0
  4304  03D4  00F4               	movwf	___awmod@divisor+1
  4305  03D5  0878               	movf	_sec,w
  4306  03D6  00D9               	movwf	??_run_program+1
  4307  03D7  01DA               	clrf	??_run_program+2
  4308  03D8  0859               	movf	??_run_program+1,w
  4309  03D9  00F5               	movwf	___awmod@dividend
  4310  03DA  085A               	movf	??_run_program+2,w
  4311  03DB  00F6               	movwf	___awmod@dividend+1
  4312  03DC  160A  118A  2515  120A  118A  	fcall	___awmod
  4313  03E1  0873               	movf	?___awmod,w
  4314  03E2  3E30               	addlw	48
  4315  03E3  160A  118A  236D  120A  118A  	fcall	_clcd_putch
  4316  03E8                     l4481:
  4317                           
  4318                           ;main.c: 468:                 reset_mode = 0x10;
  4319  03E8  0878               	movf	_sec,w
  4320  03E9  1D03               	btfss	3,2
  4321  03EA  2BEC               	goto	u5681
  4322  03EB  2BED               	goto	u5680
  4323  03EC                     u5681:
  4324  03EC  2C38               	goto	l280
  4325  03ED                     u5680:
  4326  03ED                     l4483:
  4327  03ED  1283               	bcf	3,5	;RP0=0, select bank0
  4328  03EE  1303               	bcf	3,6	;RP1=0, select bank0
  4329  03EF  086A               	movf	_min,w
  4330  03F0  1D03               	btfss	3,2
  4331  03F1  2BF3               	goto	u5691
  4332  03F2  2BF4               	goto	u5690
  4333  03F3                     u5691:
  4334  03F3  2C38               	goto	l280
  4335  03F4                     u5690:
  4336  03F4                     l4485:
  4337                           
  4338                           ;main.c: 469:                 clear_screen();;main.c: 471: 
  4339  03F4  1112               	bcf	18,2	;volatile
  4340                           
  4341                           ;main.c: 473: 
  4342  03F5  1107               	bcf	7,2	;volatile
  4343                           
  4344                           ;main.c: 475: 
  4345  03F6  1487               	bsf	7,1	;volatile
  4346  03F7                     l4487:
  4347  03F7  160A  118A  234D  120A  118A  	fcall	_clear_screen
  4348  03FC                     l4489:
  4349  03FC  3077               	movlw	low (STR_46| (0+32768))
  4350  03FD  1283               	bcf	3,5	;RP0=0, select bank0
  4351  03FE  1303               	bcf	3,6	;RP1=0, select bank0
  4352  03FF  00A0               	movwf	clcd_print@str
  4353  0400  3090               	movlw	high (STR_46| (0+32768))
  4354  0401  00A1               	movwf	clcd_print@str+1
  4355  0402  3080               	movlw	128
  4356  0403  00D8               	movwf	??_run_program
  4357  0404  0858               	movf	??_run_program,w
  4358  0405  00A2               	movwf	clcd_print@addr
  4359  0406  160A  118A  2454  120A  118A  	fcall	_clcd_print
  4360  040B                     l4491:
  4361  040B  3087               	movlw	low (STR_47| (0+32768))
  4362  040C  1283               	bcf	3,5	;RP0=0, select bank0
  4363  040D  1303               	bcf	3,6	;RP1=0, select bank0
  4364  040E  00A0               	movwf	clcd_print@str
  4365  040F  3090               	movlw	high (STR_47| (0+32768))
  4366  0410  00A1               	movwf	clcd_print@str+1
  4367  0411  30C0               	movlw	192
  4368  0412  00D8               	movwf	??_run_program
  4369  0413  0858               	movf	??_run_program,w
  4370  0414  00A2               	movwf	clcd_print@addr
  4371  0415  160A  118A  2454  120A  118A  	fcall	_clcd_print
  4372  041A                     l4493:
  4373  041A  3033               	movlw	51
  4374  041B  1283               	bcf	3,5	;RP0=0, select bank0
  4375  041C  1303               	bcf	3,6	;RP1=0, select bank0
  4376  041D  00DA               	movwf	??_run_program+2
  4377  041E  30BB               	movlw	187
  4378  041F  00D9               	movwf	??_run_program+1
  4379  0420  30DF               	movlw	223
  4380  0421  00D8               	movwf	??_run_program
  4381  0422                     u5827:
  4382  0422  0BD8               	decfsz	??_run_program,f
  4383  0423  2C22               	goto	u5827
  4384  0424  0BD9               	decfsz	??_run_program+1,f
  4385  0425  2C22               	goto	u5827
  4386  0426  0BDA               	decfsz	??_run_program+2,f
  4387  0427  2C22               	goto	u5827
  4388  0428                     l4495:
  4389  0428  1283               	bcf	3,5	;RP0=0, select bank0
  4390  0429  1303               	bcf	3,6	;RP1=0, select bank0
  4391  042A  1087               	bcf	7,1	;volatile
  4392  042B                     l4497:
  4393  042B  01ED               	clrf	_operation_mode
  4394  042C  0AED               	incf	_operation_mode,f
  4395  042D                     l4499:
  4396  042D  3010               	movlw	16
  4397  042E  00D8               	movwf	??_run_program
  4398  042F  0858               	movf	??_run_program,w
  4399  0430  1683               	bsf	3,5	;RP0=1, select bank1
  4400  0431  1303               	bcf	3,6	;RP1=0, select bank1
  4401  0432  00CB               	movwf	_reset_mode^(0+128)
  4402  0433  160A  118A  234D  120A  118A  	fcall	_clear_screen
  4403  0438                     l280:
  4404  0438  0008               	return
  4405  0439                     __end_of_run_program:
  4406                           
  4407                           	psect	text5
  4408  15CF                     __ptext5:	
  4409 ;; *************** function _door_status_check *****************
  4410 ;; Defined at:
  4411 ;;		line 349 in file "main.c"
  4412 ;; Parameters:    Size  Location     Type
  4413 ;;		None
  4414 ;; Auto vars:     Size  Location     Type
  4415 ;;		None
  4416 ;; Return value:  Size  Location     Type
  4417 ;;                  1    wreg      void 
  4418 ;; Registers used:
  4419 ;;		wreg, fsr0l, fsr0h, status,2, status,0, btemp+1, pclath, cstack
  4420 ;; Tracked objects:
  4421 ;;		On entry : 0/0
  4422 ;;		On exit  : 0/0
  4423 ;;		Unchanged: 0/0
  4424 ;; Data sizes:     COMMON   BANK0   BANK1   BANK3   BANK2
  4425 ;;      Params:         0       0       0       0       0
  4426 ;;      Locals:         0       0       0       0       0
  4427 ;;      Temps:          0       1       0       0       0
  4428 ;;      Totals:         0       1       0       0       0
  4429 ;;Total ram usage:        1 bytes
  4430 ;; Hardware stack levels used: 1
  4431 ;; Hardware stack levels required when called: 3
  4432 ;; This function calls:
  4433 ;;		_clcd_print
  4434 ;;		_clear_screen
  4435 ;; This function is called by:
  4436 ;;		_run_program
  4437 ;; This function uses a non-reentrant model
  4438 ;;
  4439                           
  4440                           
  4441                           ;psect for function _door_status_check
  4442  15CF                     _door_status_check:
  4443  15CF                     l3761:	
  4444                           ;incstack = 0
  4445                           ; Regs used in _door_status_check: [wreg-fsr0h+status,2+status,0+btemp+1+pclath+cstack]
  4446                           
  4447                           
  4448                           ;main.c: 351:         }
  4449  15CF  1283               	bcf	3,5	;RP0=0, select bank0
  4450  15D0  1303               	bcf	3,6	;RP1=0, select bank0
  4451  15D1  1806               	btfsc	6,0	;volatile
  4452  15D2  2DD4               	goto	u4431
  4453  15D3  2DD5               	goto	u4430
  4454  15D4                     u4431:
  4455  15D4  2E36               	goto	l258
  4456  15D5                     u4430:
  4457  15D5                     l3763:
  4458                           
  4459                           ;main.c: 352:         clear_screen();;main.c: 354:         RC2 = 1;
  4460  15D5  1487               	bsf	7,1	;volatile
  4461                           
  4462                           ;main.c: 355:         TMR2ON = 1;
  4463  15D6  1107               	bcf	7,2	;volatile
  4464                           
  4465                           ;main.c: 356: 
  4466  15D7  1112               	bcf	18,2	;volatile
  4467  15D8                     l3765:
  4468                           
  4469                           ;main.c: 358:         clcd_print("Function -", (0x80 + 0));
  4470  15D8  160A  118A  234D  160A  118A  	fcall	_clear_screen
  4471  15DD                     l3767:
  4472                           
  4473                           ;main.c: 359:         clcd_print("TIME", (0xC0 + 0));
  4474  15DD  30D5               	movlw	low (STR_28| (0+32768))
  4475  15DE  1283               	bcf	3,5	;RP0=0, select bank0
  4476  15DF  1303               	bcf	3,6	;RP1=0, select bank0
  4477  15E0  00A0               	movwf	clcd_print@str
  4478  15E1  3090               	movlw	high (STR_28| (0+32768))
  4479  15E2  00A1               	movwf	clcd_print@str+1
  4480  15E3  3080               	movlw	128
  4481  15E4  00A3               	movwf	??_door_status_check
  4482  15E5  0823               	movf	??_door_status_check,w
  4483  15E6  00A2               	movwf	clcd_print@addr
  4484  15E7  160A  118A  2454  160A  118A  	fcall	_clcd_print
  4485  15EC                     l3769:
  4486                           
  4487                           ;main.c: 360:         clcd_print("5-START  6-PAUSE", (0xD0 + 0));
  4488  15EC  30AF               	movlw	low (STR_29| (0+32768))
  4489  15ED  1283               	bcf	3,5	;RP0=0, select bank0
  4490  15EE  1303               	bcf	3,6	;RP1=0, select bank0
  4491  15EF  00A0               	movwf	clcd_print@str
  4492  15F0  3090               	movlw	high (STR_29| (0+32768))
  4493  15F1  00A1               	movwf	clcd_print@str+1
  4494  15F2  3090               	movlw	144
  4495  15F3  00A3               	movwf	??_door_status_check
  4496  15F4  0823               	movf	??_door_status_check,w
  4497  15F5  00A2               	movwf	clcd_print@addr
  4498  15F6  160A  118A  2454  160A  118A  	fcall	_clcd_print
  4499  15FB                     l255:	
  4500                           ;main.c: 364: ;main.c: 366: {
  4501                           
  4502                           
  4503                           ;main.c: 363: }
  4504  15FB  1283               	bcf	3,5	;RP0=0, select bank0
  4505  15FC  1303               	bcf	3,6	;RP1=0, select bank0
  4506  15FD  1C06               	btfss	6,0	;volatile
  4507  15FE  2E00               	goto	u4441
  4508  15FF  2E01               	goto	u4440
  4509  1600                     u4441:
  4510  1600  2DFB               	goto	l255
  4511  1601                     u4440:
  4512  1601                     l3771:
  4513                           
  4514                           ;main.c: 367:     door_status_check();
  4515  1601  160A  118A  234D  160A  118A  	fcall	_clear_screen
  4516  1606                     l3773:
  4517                           
  4518                           ;main.c: 369:         if(reset_mode == 0x12)
  4519  1606  1283               	bcf	3,5	;RP0=0, select bank0
  4520  1607  1303               	bcf	3,6	;RP1=0, select bank0
  4521  1608  1507               	bsf	7,2	;volatile
  4522  1609                     l3775:
  4523                           
  4524                           ;main.c: 370:         {
  4525  1609  1512               	bsf	18,2	;volatile
  4526  160A                     l3777:
  4527                           
  4528                           ;main.c: 372:             clcd_print("Prog: ",(0x80 + 0));
  4529  160A  1087               	bcf	7,1	;volatile
  4530  160B                     l3779:
  4531                           
  4532                           ;main.c: 373:             clcd_print(washing_prog[program_no],(0x80 + 6));
  4533  160B  30ED               	movlw	low (STR_30| (0+32768))
  4534  160C  00A0               	movwf	clcd_print@str
  4535  160D  3090               	movlw	high (STR_30| (0+32768))
  4536  160E  00A1               	movwf	clcd_print@str+1
  4537  160F  3080               	movlw	128
  4538  1610  00A3               	movwf	??_door_status_check
  4539  1611  0823               	movf	??_door_status_check,w
  4540  1612  00A2               	movwf	clcd_print@addr
  4541  1613  160A  118A  2454  160A  118A  	fcall	_clcd_print
  4542  1618                     l3781:
  4543                           
  4544                           ;main.c: 374:             clcd_print("Time:",(0xC0 + 0));
  4545  1618  3084               	movlw	low (STR_31| (0+32768))
  4546  1619  1283               	bcf	3,5	;RP0=0, select bank0
  4547  161A  1303               	bcf	3,6	;RP1=0, select bank0
  4548  161B  00A0               	movwf	clcd_print@str
  4549  161C  3091               	movlw	high (STR_31| (0+32768))
  4550  161D  00A1               	movwf	clcd_print@str+1
  4551  161E  30C0               	movlw	192
  4552  161F  00A3               	movwf	??_door_status_check
  4553  1620  0823               	movf	??_door_status_check,w
  4554  1621  00A2               	movwf	clcd_print@addr
  4555  1622  160A  118A  2454  160A  118A  	fcall	_clcd_print
  4556  1627                     l3783:
  4557                           
  4558                           ;main.c: 375: 
  4559  1627  3044               	movlw	low (STR_32| (0+32768))
  4560  1628  1283               	bcf	3,5	;RP0=0, select bank0
  4561  1629  1303               	bcf	3,6	;RP1=0, select bank0
  4562  162A  00A0               	movwf	clcd_print@str
  4563  162B  3090               	movlw	high (STR_32| (0+32768))
  4564  162C  00A1               	movwf	clcd_print@str+1
  4565  162D  30D0               	movlw	208
  4566  162E  00A3               	movwf	??_door_status_check
  4567  162F  0823               	movf	??_door_status_check,w
  4568  1630  00A2               	movwf	clcd_print@addr
  4569  1631  160A  118A  2454  160A  118A  	fcall	_clcd_print
  4570  1636                     l258:
  4571  1636  0008               	return
  4572  1637                     __end_of_door_status_check:
  4573                           
  4574                           	psect	text6
  4575  134D                     __ptext6:	
  4576 ;; *************** function _clear_screen *****************
  4577 ;; Defined at:
  4578 ;;		line 114 in file "main.c"
  4579 ;; Parameters:    Size  Location     Type
  4580 ;;		None
  4581 ;; Auto vars:     Size  Location     Type
  4582 ;;		None
  4583 ;; Return value:  Size  Location     Type
  4584 ;;                  1    wreg      void 
  4585 ;; Registers used:
  4586 ;;		wreg, status,2, status,0, pclath, cstack
  4587 ;; Tracked objects:
  4588 ;;		On entry : 0/0
  4589 ;;		On exit  : 0/0
  4590 ;;		Unchanged: 0/0
  4591 ;; Data sizes:     COMMON   BANK0   BANK1   BANK3   BANK2
  4592 ;;      Params:         0       0       0       0       0
  4593 ;;      Locals:         0       0       0       0       0
  4594 ;;      Temps:          1       0       0       0       0
  4595 ;;      Totals:         1       0       0       0       0
  4596 ;;Total ram usage:        1 bytes
  4597 ;; Hardware stack levels used: 1
  4598 ;; Hardware stack levels required when called: 2
  4599 ;; This function calls:
  4600 ;;		_clcd_write
  4601 ;; This function is called by:
  4602 ;;		_main
  4603 ;;		_washing_programs_display
  4604 ;;		_water_level_display
  4605 ;;		_door_status_check
  4606 ;;		_run_program
  4607 ;; This function uses a non-reentrant model
  4608 ;;
  4609                           
  4610                           
  4611                           ;psect for function _clear_screen
  4612  134D                     _clear_screen:
  4613  134D                     l3529:	
  4614                           ;incstack = 0
  4615                           ; Regs used in _clear_screen: [wreg+status,2+status,0+pclath+cstack]
  4616                           
  4617                           
  4618                           ;main.c: 116:     {
  4619  134D  01F3               	clrf	clcd_write@mode
  4620  134E  3001               	movlw	1
  4621  134F  160A  118A  239A  160A  118A  	fcall	_clcd_write
  4622  1354                     l3531:
  4623                           
  4624                           ;main.c: 117:       clcd_putch(0xFF, (0xD0 + i));
  4625  1354  30A6               	movlw	166
  4626  1355  00F7               	movwf	??_clear_screen
  4627  1356                     u5837:
  4628  1356  0BF7               	decfsz	??_clear_screen,f
  4629  1357  2B56               	goto	u5837
  4630  1358  0000               	nop
  4631  1359                     l163:
  4632  1359  0008               	return
  4633  135A                     __end_of_clear_screen:
  4634                           
  4635                           	psect	text7
  4636  1744                     __ptext7:	
  4637 ;; *************** function ___xxtofl *****************
  4638 ;; Defined at:
  4639 ;;		line 10 in file "C:\Program Files\Microchip\xc8\v2.32\pic\sources\c90\common\xxtofl.c"
  4640 ;; Parameters:    Size  Location     Type
  4641 ;;  sign            1    wreg     unsigned char 
  4642 ;;  val             4    3[COMMON] long 
  4643 ;; Auto vars:     Size  Location     Type
  4644 ;;  sign            1    4[BANK0 ] unsigned char 
  4645 ;;  arg             4    6[BANK0 ] unsigned long 
  4646 ;;  exp             1    5[BANK0 ] unsigned char 
  4647 ;; Return value:  Size  Location     Type
  4648 ;;                  4    3[COMMON] unsigned char 
  4649 ;; Registers used:
  4650 ;;		wreg, status,2, status,0
  4651 ;; Tracked objects:
  4652 ;;		On entry : 0/0
  4653 ;;		On exit  : 0/0
  4654 ;;		Unchanged: 0/0
  4655 ;; Data sizes:     COMMON   BANK0   BANK1   BANK3   BANK2
  4656 ;;      Params:         4       0       0       0       0
  4657 ;;      Locals:         0       6       0       0       0
  4658 ;;      Temps:          0       4       0       0       0
  4659 ;;      Totals:         4      10       0       0       0
  4660 ;;Total ram usage:       14 bytes
  4661 ;; Hardware stack levels used: 1
  4662 ;; Hardware stack levels required when called: 1
  4663 ;; This function calls:
  4664 ;;		Nothing
  4665 ;; This function is called by:
  4666 ;;		_run_program
  4667 ;; This function uses a non-reentrant model
  4668 ;;
  4669                           
  4670                           
  4671                           ;psect for function ___xxtofl
  4672  1744                     ___xxtofl:
  4673                           
  4674                           ;incstack = 0
  4675                           ; Regs used in ___xxtofl: [wreg+status,2+status,0]
  4676                           ;___xxtofl@sign stored from wreg
  4677  1744  1283               	bcf	3,5	;RP0=0, select bank0
  4678  1745  1303               	bcf	3,6	;RP1=0, select bank0
  4679  1746  00A4               	movwf	___xxtofl@sign
  4680  1747                     l4083:
  4681  1747  0824               	movf	___xxtofl@sign,w
  4682  1748  1903               	btfsc	3,2
  4683  1749  2F4B               	goto	u5221
  4684  174A  2F4C               	goto	u5220
  4685  174B                     u5221:
  4686  174B  2F60               	goto	l4089
  4687  174C                     u5220:
  4688  174C                     l4085:
  4689  174C  1FF6               	btfss	___xxtofl@val+3,7
  4690  174D  2F4F               	goto	u5231
  4691  174E  2F50               	goto	u5230
  4692  174F                     u5231:
  4693  174F  2F60               	goto	l4089
  4694  1750                     u5230:
  4695  1750                     l4087:
  4696  1750  0973               	comf	___xxtofl@val,w
  4697  1751  00A6               	movwf	___xxtofl@arg
  4698  1752  0974               	comf	___xxtofl@val+1,w
  4699  1753  00A7               	movwf	___xxtofl@arg+1
  4700  1754  0975               	comf	___xxtofl@val+2,w
  4701  1755  00A8               	movwf	___xxtofl@arg+2
  4702  1756  0976               	comf	___xxtofl@val+3,w
  4703  1757  00A9               	movwf	___xxtofl@arg+3
  4704  1758  0AA6               	incf	___xxtofl@arg,f
  4705  1759  1903               	skipnz
  4706  175A  0AA7               	incf	___xxtofl@arg+1,f
  4707  175B  1903               	skipnz
  4708  175C  0AA8               	incf	___xxtofl@arg+2,f
  4709  175D  1903               	skipnz
  4710  175E  0AA9               	incf	___xxtofl@arg+3,f
  4711  175F  2F68               	goto	l830
  4712  1760                     l4089:
  4713  1760  0876               	movf	___xxtofl@val+3,w
  4714  1761  00A9               	movwf	___xxtofl@arg+3
  4715  1762  0875               	movf	___xxtofl@val+2,w
  4716  1763  00A8               	movwf	___xxtofl@arg+2
  4717  1764  0874               	movf	___xxtofl@val+1,w
  4718  1765  00A7               	movwf	___xxtofl@arg+1
  4719  1766  0873               	movf	___xxtofl@val,w
  4720  1767  00A6               	movwf	___xxtofl@arg
  4721  1768                     l830:
  4722  1768  0876               	movf	___xxtofl@val+3,w
  4723  1769  0475               	iorwf	___xxtofl@val+2,w
  4724  176A  0474               	iorwf	___xxtofl@val+1,w
  4725  176B  0473               	iorwf	___xxtofl@val,w
  4726  176C  1D03               	skipz
  4727  176D  2F6F               	goto	u5241
  4728  176E  2F70               	goto	u5240
  4729  176F                     u5241:
  4730  176F  2F79               	goto	l4095
  4731  1770                     u5240:
  4732  1770                     l4091:
  4733  1770  3000               	movlw	0
  4734  1771  00F6               	movwf	?___xxtofl+3
  4735  1772  3000               	movlw	0
  4736  1773  00F5               	movwf	?___xxtofl+2
  4737  1774  3000               	movlw	0
  4738  1775  00F4               	movwf	?___xxtofl+1
  4739  1776  3000               	movlw	0
  4740  1777  00F3               	movwf	?___xxtofl
  4741  1778  2FFF               	goto	l832
  4742  1779                     l4095:
  4743  1779  3096               	movlw	150
  4744  177A  00A0               	movwf	??___xxtofl
  4745  177B  0820               	movf	??___xxtofl,w
  4746  177C  00A5               	movwf	___xxtofl@exp
  4747  177D  2F8B               	goto	l4099
  4748  177E                     l4097:
  4749  177E  3001               	movlw	1
  4750  177F  00A0               	movwf	??___xxtofl
  4751  1780  0820               	movf	??___xxtofl,w
  4752  1781  07A5               	addwf	___xxtofl@exp,f
  4753  1782  3001               	movlw	1
  4754  1783                     u5255:
  4755  1783  1003               	clrc
  4756  1784  0CA9               	rrf	___xxtofl@arg+3,f
  4757  1785  0CA8               	rrf	___xxtofl@arg+2,f
  4758  1786  0CA7               	rrf	___xxtofl@arg+1,f
  4759  1787  0CA6               	rrf	___xxtofl@arg,f
  4760  1788  3EFF               	addlw	-1
  4761  1789  1D03               	skipz
  4762  178A  2F83               	goto	u5255
  4763  178B                     l4099:
  4764  178B  30FE               	movlw	254
  4765  178C  0529               	andwf	___xxtofl@arg+3,w
  4766  178D  1D03               	btfss	3,2
  4767  178E  2F90               	goto	u5261
  4768  178F  2F91               	goto	u5260
  4769  1790                     u5261:
  4770  1790  2F7E               	goto	l4097
  4771  1791                     u5260:
  4772  1791  2FAD               	goto	l836
  4773  1792                     l4101:
  4774  1792  3001               	movlw	1
  4775  1793  00A0               	movwf	??___xxtofl
  4776  1794  0820               	movf	??___xxtofl,w
  4777  1795  07A5               	addwf	___xxtofl@exp,f
  4778  1796                     l4103:
  4779  1796  3001               	movlw	1
  4780  1797  07A6               	addwf	___xxtofl@arg,f
  4781  1798  3000               	movlw	0
  4782  1799  1803               	skipnc
  4783  179A  3001               	movlw	1
  4784  179B  07A7               	addwf	___xxtofl@arg+1,f
  4785  179C  3000               	movlw	0
  4786  179D  1803               	skipnc
  4787  179E  3001               	movlw	1
  4788  179F  07A8               	addwf	___xxtofl@arg+2,f
  4789  17A0  3000               	movlw	0
  4790  17A1  1803               	skipnc
  4791  17A2  3001               	movlw	1
  4792  17A3  07A9               	addwf	___xxtofl@arg+3,f
  4793  17A4                     l4105:
  4794  17A4  3001               	movlw	1
  4795  17A5                     u5275:
  4796  17A5  1003               	clrc
  4797  17A6  0CA9               	rrf	___xxtofl@arg+3,f
  4798  17A7  0CA8               	rrf	___xxtofl@arg+2,f
  4799  17A8  0CA7               	rrf	___xxtofl@arg+1,f
  4800  17A9  0CA6               	rrf	___xxtofl@arg,f
  4801  17AA  3EFF               	addlw	-1
  4802  17AB  1D03               	skipz
  4803  17AC  2FA5               	goto	u5275
  4804  17AD                     l836:
  4805  17AD  30FF               	movlw	255
  4806  17AE  0529               	andwf	___xxtofl@arg+3,w
  4807  17AF  1D03               	btfss	3,2
  4808  17B0  2FB2               	goto	u5281
  4809  17B1  2FB3               	goto	u5280
  4810  17B2                     u5281:
  4811  17B2  2F92               	goto	l4101
  4812  17B3                     u5280:
  4813  17B3  2FBF               	goto	l4109
  4814  17B4                     l4107:
  4815  17B4  3001               	movlw	1
  4816  17B5  02A5               	subwf	___xxtofl@exp,f
  4817  17B6  3001               	movlw	1
  4818  17B7  00A0               	movwf	??___xxtofl
  4819  17B8                     u5295:
  4820  17B8  1003               	clrc
  4821  17B9  0DA6               	rlf	___xxtofl@arg,f
  4822  17BA  0DA7               	rlf	___xxtofl@arg+1,f
  4823  17BB  0DA8               	rlf	___xxtofl@arg+2,f
  4824  17BC  0DA9               	rlf	___xxtofl@arg+3,f
  4825  17BD  0BA0               	decfsz	??___xxtofl,f
  4826  17BE  2FB8               	goto	u5295
  4827  17BF                     l4109:
  4828  17BF  1BA8               	btfsc	___xxtofl@arg+2,7
  4829  17C0  2FC2               	goto	u5301
  4830  17C1  2FC3               	goto	u5300
  4831  17C2                     u5301:
  4832  17C2  2FC9               	goto	l843
  4833  17C3                     u5300:
  4834  17C3                     l4111:
  4835  17C3  3002               	movlw	2
  4836  17C4  0225               	subwf	___xxtofl@exp,w
  4837  17C5  1803               	skipnc
  4838  17C6  2FC8               	goto	u5311
  4839  17C7  2FC9               	goto	u5310
  4840  17C8                     u5311:
  4841  17C8  2FB4               	goto	l4107
  4842  17C9                     u5310:
  4843  17C9                     l843:
  4844  17C9  1825               	btfsc	___xxtofl@exp,0
  4845  17CA  2FCC               	goto	u5321
  4846  17CB  2FCD               	goto	u5320
  4847  17CC                     u5321:
  4848  17CC  2FD5               	goto	l844
  4849  17CD                     u5320:
  4850  17CD                     l4113:
  4851  17CD  30FF               	movlw	255
  4852  17CE  05A6               	andwf	___xxtofl@arg,f
  4853  17CF  30FF               	movlw	255
  4854  17D0  05A7               	andwf	___xxtofl@arg+1,f
  4855  17D1  307F               	movlw	127
  4856  17D2  05A8               	andwf	___xxtofl@arg+2,f
  4857  17D3  30FF               	movlw	255
  4858  17D4  05A9               	andwf	___xxtofl@arg+3,f
  4859  17D5                     l844:
  4860  17D5  1003               	clrc
  4861  17D6  0CA5               	rrf	___xxtofl@exp,f
  4862  17D7                     l4115:
  4863  17D7  0825               	movf	___xxtofl@exp,w
  4864  17D8  00A0               	movwf	??___xxtofl
  4865  17D9  01A1               	clrf	??___xxtofl+1
  4866  17DA  01A2               	clrf	??___xxtofl+2
  4867  17DB  01A3               	clrf	??___xxtofl+3
  4868  17DC  3018               	movlw	24
  4869  17DD                     u5335:
  4870  17DD  1003               	clrc
  4871  17DE  0DA0               	rlf	??___xxtofl,f
  4872  17DF  0DA1               	rlf	??___xxtofl+1,f
  4873  17E0  0DA2               	rlf	??___xxtofl+2,f
  4874  17E1  0DA3               	rlf	??___xxtofl+3,f
  4875  17E2                     u5330:
  4876  17E2  3EFF               	addlw	-1
  4877  17E3  1D03               	skipz
  4878  17E4  2FDD               	goto	u5335
  4879  17E5  0820               	movf	??___xxtofl,w
  4880  17E6  04A6               	iorwf	___xxtofl@arg,f
  4881  17E7  0821               	movf	??___xxtofl+1,w
  4882  17E8  04A7               	iorwf	___xxtofl@arg+1,f
  4883  17E9  0822               	movf	??___xxtofl+2,w
  4884  17EA  04A8               	iorwf	___xxtofl@arg+2,f
  4885  17EB  0823               	movf	??___xxtofl+3,w
  4886  17EC  04A9               	iorwf	___xxtofl@arg+3,f
  4887  17ED                     l4117:
  4888  17ED  0824               	movf	___xxtofl@sign,w
  4889  17EE  1903               	btfsc	3,2
  4890  17EF  2FF1               	goto	u5341
  4891  17F0  2FF2               	goto	u5340
  4892  17F1                     u5341:
  4893  17F1  2FF7               	goto	l4123
  4894  17F2                     u5340:
  4895  17F2                     l4119:
  4896  17F2  1FF6               	btfss	___xxtofl@val+3,7
  4897  17F3  2FF5               	goto	u5351
  4898  17F4  2FF6               	goto	u5350
  4899  17F5                     u5351:
  4900  17F5  2FF7               	goto	l4123
  4901  17F6                     u5350:
  4902  17F6                     l4121:
  4903  17F6  17A9               	bsf	___xxtofl@arg+3,7
  4904  17F7                     l4123:
  4905  17F7  0829               	movf	___xxtofl@arg+3,w
  4906  17F8  00F6               	movwf	?___xxtofl+3
  4907  17F9  0828               	movf	___xxtofl@arg+2,w
  4908  17FA  00F5               	movwf	?___xxtofl+2
  4909  17FB  0827               	movf	___xxtofl@arg+1,w
  4910  17FC  00F4               	movwf	?___xxtofl+1
  4911  17FD  0826               	movf	___xxtofl@arg,w
  4912  17FE  00F3               	movwf	?___xxtofl
  4913  17FF                     l832:
  4914  17FF  0008               	return
  4915  1800                     __end_of___xxtofl:
  4916                           
  4917                           	psect	text8
  4918  1429                     __ptext8:	
  4919 ;; *************** function ___wmul *****************
  4920 ;; Defined at:
  4921 ;;		line 15 in file "C:\Program Files\Microchip\xc8\v2.32\pic\sources\c90\common\Umul16.c"
  4922 ;; Parameters:    Size  Location     Type
  4923 ;;  multiplier      2    3[COMMON] unsigned int 
  4924 ;;  multiplicand    2    5[COMMON] unsigned int 
  4925 ;; Auto vars:     Size  Location     Type
  4926 ;;  product         2    0[BANK0 ] unsigned int 
  4927 ;; Return value:  Size  Location     Type
  4928 ;;                  2    3[COMMON] unsigned int 
  4929 ;; Registers used:
  4930 ;;		wreg, status,2, status,0
  4931 ;; Tracked objects:
  4932 ;;		On entry : 0/0
  4933 ;;		On exit  : 0/0
  4934 ;;		Unchanged: 0/0
  4935 ;; Data sizes:     COMMON   BANK0   BANK1   BANK3   BANK2
  4936 ;;      Params:         4       0       0       0       0
  4937 ;;      Locals:         0       2       0       0       0
  4938 ;;      Temps:          0       0       0       0       0
  4939 ;;      Totals:         4       2       0       0       0
  4940 ;;Total ram usage:        6 bytes
  4941 ;; Hardware stack levels used: 1
  4942 ;; Hardware stack levels required when called: 1
  4943 ;; This function calls:
  4944 ;;		Nothing
  4945 ;; This function is called by:
  4946 ;;		_run_program
  4947 ;; This function uses a non-reentrant model
  4948 ;;
  4949                           
  4950                           
  4951                           ;psect for function ___wmul
  4952  1429                     ___wmul:
  4953  1429                     l3785:	
  4954                           ;incstack = 0
  4955                           ; Regs used in ___wmul: [wreg+status,2+status,0]
  4956                           
  4957  1429  1283               	bcf	3,5	;RP0=0, select bank0
  4958  142A  1303               	bcf	3,6	;RP1=0, select bank0
  4959  142B  01A0               	clrf	___wmul@product
  4960  142C  01A1               	clrf	___wmul@product+1
  4961  142D                     l3787:
  4962  142D  1C73               	btfss	___wmul@multiplier,0
  4963  142E  2C30               	goto	u4451
  4964  142F  2C31               	goto	u4450
  4965  1430                     u4451:
  4966  1430  2C39               	goto	l397
  4967  1431                     u4450:
  4968  1431                     l3789:
  4969  1431  0875               	movf	___wmul@multiplicand,w
  4970  1432  1283               	bcf	3,5	;RP0=0, select bank0
  4971  1433  1303               	bcf	3,6	;RP1=0, select bank0
  4972  1434  07A0               	addwf	___wmul@product,f
  4973  1435  1803               	skipnc
  4974  1436  0AA1               	incf	___wmul@product+1,f
  4975  1437  0876               	movf	___wmul@multiplicand+1,w
  4976  1438  07A1               	addwf	___wmul@product+1,f
  4977  1439                     l397:
  4978  1439  3001               	movlw	1
  4979  143A                     u4465:
  4980  143A  1003               	clrc
  4981  143B  0DF5               	rlf	___wmul@multiplicand,f
  4982  143C  0DF6               	rlf	___wmul@multiplicand+1,f
  4983  143D  3EFF               	addlw	-1
  4984  143E  1D03               	skipz
  4985  143F  2C3A               	goto	u4465
  4986  1440                     l3791:
  4987  1440  3001               	movlw	1
  4988  1441                     u4475:
  4989  1441  1003               	clrc
  4990  1442  0CF4               	rrf	___wmul@multiplier+1,f
  4991  1443  0CF3               	rrf	___wmul@multiplier,f
  4992  1444  3EFF               	addlw	-1
  4993  1445  1D03               	skipz
  4994  1446  2C41               	goto	u4475
  4995  1447                     l3793:
  4996  1447  0873               	movf	___wmul@multiplier,w
  4997  1448  0474               	iorwf	___wmul@multiplier+1,w
  4998  1449  1D03               	btfss	3,2
  4999  144A  2C4C               	goto	u4481
  5000  144B  2C4D               	goto	u4480
  5001  144C                     u4481:
  5002  144C  2C2D               	goto	l3787
  5003  144D                     u4480:
  5004  144D                     l3795:
  5005  144D  1283               	bcf	3,5	;RP0=0, select bank0
  5006  144E  1303               	bcf	3,6	;RP1=0, select bank0
  5007  144F  0821               	movf	___wmul@product+1,w
  5008  1450  00F4               	movwf	?___wmul+1
  5009  1451  0820               	movf	___wmul@product,w
  5010  1452  00F3               	movwf	?___wmul
  5011  1453                     l399:
  5012  1453  0008               	return
  5013  1454                     __end_of___wmul:
  5014                           
  5015                           	psect	text9
  5016  0803                     __ptext9:	
  5017 ;; *************** function ___fltol *****************
  5018 ;; Defined at:
  5019 ;;		line 43 in file "C:\Program Files\Microchip\xc8\v2.32\pic\sources\c90\common\fltol.c"
  5020 ;; Parameters:    Size  Location     Type
  5021 ;;  f1              4   36[BANK0 ] unsigned int 
  5022 ;; Auto vars:     Size  Location     Type
  5023 ;;  exp1            1   46[BANK0 ] unsigned char 
  5024 ;;  sign1           1   45[BANK0 ] unsigned char 
  5025 ;; Return value:  Size  Location     Type
  5026 ;;                  4   36[BANK0 ] long 
  5027 ;; Registers used:
  5028 ;;		wreg, status,2, status,0
  5029 ;; Tracked objects:
  5030 ;;		On entry : 0/0
  5031 ;;		On exit  : 0/0
  5032 ;;		Unchanged: 0/0
  5033 ;; Data sizes:     COMMON   BANK0   BANK1   BANK3   BANK2
  5034 ;;      Params:         0       4       0       0       0
  5035 ;;      Locals:         0       2       0       0       0
  5036 ;;      Temps:          0       5       0       0       0
  5037 ;;      Totals:         0      11       0       0       0
  5038 ;;Total ram usage:       11 bytes
  5039 ;; Hardware stack levels used: 1
  5040 ;; Hardware stack levels required when called: 1
  5041 ;; This function calls:
  5042 ;;		Nothing
  5043 ;; This function is called by:
  5044 ;;		_run_program
  5045 ;; This function uses a non-reentrant model
  5046 ;;
  5047                           
  5048                           
  5049                           ;psect for function ___fltol
  5050  0803                     ___fltol:
  5051  0803                     l3901:	
  5052                           ;incstack = 0
  5053                           ; Regs used in ___fltol: [wreg+status,2+status,0]
  5054                           
  5055  0803  1003               	clrc
  5056  0804  1283               	bcf	3,5	;RP0=0, select bank0
  5057  0805  1303               	bcf	3,6	;RP1=0, select bank0
  5058  0806  0D46               	rlf	___fltol@f1+2,w
  5059  0807  0D47               	rlf	___fltol@f1+3,w
  5060  0808  00C8               	movwf	??___fltol
  5061  0809  0848               	movf	??___fltol,w
  5062  080A  00CE               	movwf	___fltol@exp1
  5063  080B  084E               	movf	___fltol@exp1,w
  5064  080C  1D03               	btfss	3,2
  5065  080D  280F               	goto	u4751
  5066  080E  2810               	goto	u4750
  5067  080F                     u4751:
  5068  080F  2819               	goto	l3907
  5069  0810                     u4750:
  5070  0810                     l3903:
  5071  0810  3000               	movlw	0
  5072  0811  00C7               	movwf	?___fltol+3
  5073  0812  3000               	movlw	0
  5074  0813  00C6               	movwf	?___fltol+2
  5075  0814  3000               	movlw	0
  5076  0815  00C5               	movwf	?___fltol+1
  5077  0816  3000               	movlw	0
  5078  0817  00C4               	movwf	?___fltol
  5079  0818  287E               	goto	l583
  5080  0819                     l3907:
  5081  0819  0844               	movf	___fltol@f1,w
  5082  081A  00C8               	movwf	??___fltol
  5083  081B  0845               	movf	___fltol@f1+1,w
  5084  081C  00C9               	movwf	??___fltol+1
  5085  081D  0846               	movf	___fltol@f1+2,w
  5086  081E  00CA               	movwf	??___fltol+2
  5087  081F  0847               	movf	___fltol@f1+3,w
  5088  0820  00CB               	movwf	??___fltol+3
  5089  0821  301F               	movlw	31
  5090  0822                     u4765:
  5091  0822  1003               	clrc
  5092  0823  0CCB               	rrf	??___fltol+3,f
  5093  0824  0CCA               	rrf	??___fltol+2,f
  5094  0825  0CC9               	rrf	??___fltol+1,f
  5095  0826  0CC8               	rrf	??___fltol,f
  5096  0827                     u4760:
  5097  0827  3EFF               	addlw	-1
  5098  0828  1D03               	skipz
  5099  0829  2822               	goto	u4765
  5100  082A  0848               	movf	??___fltol,w
  5101  082B  00CC               	movwf	??___fltol+4
  5102  082C  084C               	movf	??___fltol+4,w
  5103  082D  00CD               	movwf	___fltol@sign1
  5104  082E                     l3909:
  5105  082E  17C6               	bsf	___fltol@f1+2,7
  5106  082F                     l3911:
  5107  082F  30FF               	movlw	255
  5108  0830  05C4               	andwf	___fltol@f1,f
  5109  0831  30FF               	movlw	255
  5110  0832  05C5               	andwf	___fltol@f1+1,f
  5111  0833  30FF               	movlw	255
  5112  0834  05C6               	andwf	___fltol@f1+2,f
  5113  0835  3000               	movlw	0
  5114  0836  05C7               	andwf	___fltol@f1+3,f
  5115  0837                     l3913:
  5116  0837  3096               	movlw	150
  5117  0838  02CE               	subwf	___fltol@exp1,f
  5118  0839                     l3915:
  5119  0839  1FCE               	btfss	___fltol@exp1,7
  5120  083A  283C               	goto	u4771
  5121  083B  283D               	goto	u4770
  5122  083C                     u4771:
  5123  083C  2857               	goto	l3925
  5124  083D                     u4770:
  5125  083D                     l3917:
  5126  083D  084E               	movf	___fltol@exp1,w
  5127  083E  3A80               	xorlw	128
  5128  083F  3E97               	addlw	151
  5129  0840  1803               	skipnc
  5130  0841  2843               	goto	u4781
  5131  0842  2844               	goto	u4780
  5132  0843                     u4781:
  5133  0843  2845               	goto	l3923
  5134  0844                     u4780:
  5135  0844  2810               	goto	l3903
  5136  0845                     l3923:
  5137  0845  3001               	movlw	1
  5138  0846                     u4795:
  5139  0846  1003               	clrc
  5140  0847  0CC7               	rrf	___fltol@f1+3,f
  5141  0848  0CC6               	rrf	___fltol@f1+2,f
  5142  0849  0CC5               	rrf	___fltol@f1+1,f
  5143  084A  0CC4               	rrf	___fltol@f1,f
  5144  084B  3EFF               	addlw	-1
  5145  084C  1D03               	skipz
  5146  084D  2846               	goto	u4795
  5147  084E  3001               	movlw	1
  5148  084F  00C8               	movwf	??___fltol
  5149  0850  0848               	movf	??___fltol,w
  5150  0851  07CE               	addwf	___fltol@exp1,f
  5151  0852  1D03               	btfss	3,2
  5152  0853  2855               	goto	u4801
  5153  0854  2856               	goto	u4800
  5154  0855                     u4801:
  5155  0855  2845               	goto	l3923
  5156  0856                     u4800:
  5157  0856  286E               	goto	l3933
  5158  0857                     l3925:
  5159  0857  3020               	movlw	32
  5160  0858  024E               	subwf	___fltol@exp1,w
  5161  0859  1C03               	skipc
  5162  085A  285C               	goto	u4811
  5163  085B  285D               	goto	u4810
  5164  085C                     u4811:
  5165  085C  2869               	goto	l590
  5166  085D                     u4810:
  5167  085D  2810               	goto	l3903
  5168  085E                     l3931:
  5169  085E  3001               	movlw	1
  5170  085F  00C8               	movwf	??___fltol
  5171  0860                     u4825:
  5172  0860  1003               	clrc
  5173  0861  0DC4               	rlf	___fltol@f1,f
  5174  0862  0DC5               	rlf	___fltol@f1+1,f
  5175  0863  0DC6               	rlf	___fltol@f1+2,f
  5176  0864  0DC7               	rlf	___fltol@f1+3,f
  5177  0865  0BC8               	decfsz	??___fltol,f
  5178  0866  2860               	goto	u4825
  5179  0867  3001               	movlw	1
  5180  0868  02CE               	subwf	___fltol@exp1,f
  5181  0869                     l590:
  5182  0869  084E               	movf	___fltol@exp1,w
  5183  086A  1D03               	btfss	3,2
  5184  086B  286D               	goto	u4831
  5185  086C  286E               	goto	u4830
  5186  086D                     u4831:
  5187  086D  285E               	goto	l3931
  5188  086E                     u4830:
  5189  086E                     l3933:
  5190  086E  084D               	movf	___fltol@sign1,w
  5191  086F  1903               	btfsc	3,2
  5192  0870  2872               	goto	u4841
  5193  0871  2873               	goto	u4840
  5194  0872                     u4841:
  5195  0872  287E               	goto	l593
  5196  0873                     u4840:
  5197  0873                     l3935:
  5198  0873  09C4               	comf	___fltol@f1,f
  5199  0874  09C5               	comf	___fltol@f1+1,f
  5200  0875  09C6               	comf	___fltol@f1+2,f
  5201  0876  09C7               	comf	___fltol@f1+3,f
  5202  0877  0AC4               	incf	___fltol@f1,f
  5203  0878  1903               	skipnz
  5204  0879  0AC5               	incf	___fltol@f1+1,f
  5205  087A  1903               	skipnz
  5206  087B  0AC6               	incf	___fltol@f1+2,f
  5207  087C  1903               	skipnz
  5208  087D  0AC7               	incf	___fltol@f1+3,f
  5209  087E                     l593:
  5210  087E                     l583:
  5211  087E  0008               	return
  5212  087F                     __end_of___fltol:
  5213                           
  5214                           	psect	text10
  5215  13DC                     __ptext10:	
  5216 ;; *************** function ___flsub *****************
  5217 ;; Defined at:
  5218 ;;		line 242 in file "C:\Program Files\Microchip\xc8\v2.32\pic\sources\c90\common\sprcadd.c"
  5219 ;; Parameters:    Size  Location     Type
  5220 ;;  a               4   36[BANK0 ] long 
  5221 ;;  b               4   40[BANK0 ] long 
  5222 ;; Auto vars:     Size  Location     Type
  5223 ;;		None
  5224 ;; Return value:  Size  Location     Type
  5225 ;;                  4   36[BANK0 ] long 
  5226 ;; Registers used:
  5227 ;;		wreg, status,2, status,0, btemp+1, pclath, cstack
  5228 ;; Tracked objects:
  5229 ;;		On entry : 0/0
  5230 ;;		On exit  : 0/0
  5231 ;;		Unchanged: 0/0
  5232 ;; Data sizes:     COMMON   BANK0   BANK1   BANK3   BANK2
  5233 ;;      Params:         0       8       0       0       0
  5234 ;;      Locals:         0       0       0       0       0
  5235 ;;      Temps:          0       0       0       0       0
  5236 ;;      Totals:         0       8       0       0       0
  5237 ;;Total ram usage:        8 bytes
  5238 ;; Hardware stack levels used: 1
  5239 ;; Hardware stack levels required when called: 2
  5240 ;; This function calls:
  5241 ;;		___fladd
  5242 ;; This function is called by:
  5243 ;;		_run_program
  5244 ;; This function uses a non-reentrant model
  5245 ;;
  5246                           
  5247                           
  5248                           ;psect for function ___flsub
  5249  13DC                     ___flsub:
  5250  13DC                     l3937:	
  5251                           ;incstack = 0
  5252                           ; Regs used in ___flsub: [wreg+status,2+status,0+btemp+1+pclath+cstack]
  5253                           
  5254  13DC  3080               	movlw	128
  5255  13DD  1283               	bcf	3,5	;RP0=0, select bank0
  5256  13DE  1303               	bcf	3,6	;RP1=0, select bank0
  5257  13DF  06C7               	xorwf	___flsub@a+3,f
  5258  13E0                     l3939:
  5259  13E0  084B               	movf	___flsub@b+3,w
  5260  13E1  00A3               	movwf	___fladd@b+3
  5261  13E2  084A               	movf	___flsub@b+2,w
  5262  13E3  00A2               	movwf	___fladd@b+2
  5263  13E4  0849               	movf	___flsub@b+1,w
  5264  13E5  00A1               	movwf	___fladd@b+1
  5265  13E6  0848               	movf	___flsub@b,w
  5266  13E7  00A0               	movwf	___fladd@b
  5267  13E8  0847               	movf	___flsub@a+3,w
  5268  13E9  00A7               	movwf	___fladd@a+3
  5269  13EA  0846               	movf	___flsub@a+2,w
  5270  13EB  00A6               	movwf	___fladd@a+2
  5271  13EC  0845               	movf	___flsub@a+1,w
  5272  13ED  00A5               	movwf	___fladd@a+1
  5273  13EE  0844               	movf	___flsub@a,w
  5274  13EF  00A4               	movwf	___fladd@a
  5275  13F0  120A  158A  2570  160A  118A  	fcall	___fladd
  5276  13F5  1283               	bcf	3,5	;RP0=0, select bank0
  5277  13F6  1303               	bcf	3,6	;RP1=0, select bank0
  5278  13F7  0823               	movf	?___fladd+3,w
  5279  13F8  00C7               	movwf	?___flsub+3
  5280  13F9  0822               	movf	?___fladd+2,w
  5281  13FA  00C6               	movwf	?___flsub+2
  5282  13FB  0821               	movf	?___fladd+1,w
  5283  13FC  00C5               	movwf	?___flsub+1
  5284  13FD  0820               	movf	?___fladd,w
  5285  13FE  00C4               	movwf	?___flsub
  5286  13FF                     l736:
  5287  13FF  0008               	return
  5288  1400                     __end_of___flsub:
  5289                           
  5290                           	psect	text11
  5291  0D70                     __ptext11:	
  5292 ;; *************** function ___fladd *****************
  5293 ;; Defined at:
  5294 ;;		line 10 in file "C:\Program Files\Microchip\xc8\v2.32\pic\sources\c90\common\sprcadd.c"
  5295 ;; Parameters:    Size  Location     Type
  5296 ;;  b               4    0[BANK0 ] long 
  5297 ;;  a               4    4[BANK0 ] long 
  5298 ;; Auto vars:     Size  Location     Type
  5299 ;;  grs             1    6[COMMON] unsigned char 
  5300 ;;  bexp            1    5[COMMON] unsigned char 
  5301 ;;  aexp            1    4[COMMON] unsigned char 
  5302 ;;  signs           1    3[COMMON] unsigned char 
  5303 ;; Return value:  Size  Location     Type
  5304 ;;                  4    0[BANK0 ] unsigned char 
  5305 ;; Registers used:
  5306 ;;		wreg, status,2, status,0, btemp+1
  5307 ;; Tracked objects:
  5308 ;;		On entry : 0/0
  5309 ;;		On exit  : 0/0
  5310 ;;		Unchanged: 0/0
  5311 ;; Data sizes:     COMMON   BANK0   BANK1   BANK3   BANK2
  5312 ;;      Params:         0       8       0       0       0
  5313 ;;      Locals:         4       0       0       0       0
  5314 ;;      Temps:          0       8       0       0       0
  5315 ;;      Totals:         4      16       0       0       0
  5316 ;;Total ram usage:       20 bytes
  5317 ;; Hardware stack levels used: 1
  5318 ;; Hardware stack levels required when called: 1
  5319 ;; This function calls:
  5320 ;;		Nothing
  5321 ;; This function is called by:
  5322 ;;		___flsub
  5323 ;; This function uses a non-reentrant model
  5324 ;;
  5325                           
  5326                           
  5327                           ;psect for function ___fladd
  5328  0D70                     ___fladd:
  5329  0D70                     l3533:	
  5330                           ;incstack = 0
  5331                           ; Regs used in ___fladd: [wreg+status,2+status,0+btemp+1]
  5332                           
  5333  0D70  1283               	bcf	3,5	;RP0=0, select bank0
  5334  0D71  1303               	bcf	3,6	;RP1=0, select bank0
  5335  0D72  0823               	movf	___fladd@b+3,w
  5336  0D73  3980               	andlw	128
  5337  0D74  00A8               	movwf	??___fladd
  5338  0D75  0828               	movf	??___fladd,w
  5339  0D76  00F3               	movwf	___fladd@signs
  5340  0D77                     l3535:
  5341  0D77  0823               	movf	___fladd@b+3,w
  5342  0D78  00A8               	movwf	??___fladd
  5343  0D79  0728               	addwf	??___fladd,w
  5344  0D7A  00A9               	movwf	??___fladd+1
  5345  0D7B  0829               	movf	??___fladd+1,w
  5346  0D7C  00F5               	movwf	___fladd@bexp
  5347  0D7D                     l3537:
  5348  0D7D  1FA2               	btfss	___fladd@b+2,7
  5349  0D7E  2D80               	goto	u3941
  5350  0D7F  2D81               	goto	u3940
  5351  0D80                     u3941:
  5352  0D80  2D82               	goto	l3541
  5353  0D81                     u3940:
  5354  0D81                     l3539:
  5355  0D81  1475               	bsf	___fladd@bexp,0
  5356  0D82                     l3541:
  5357  0D82  0875               	movf	___fladd@bexp,w
  5358  0D83  1903               	btfsc	3,2
  5359  0D84  2D86               	goto	u3951
  5360  0D85  2D87               	goto	u3950
  5361  0D86                     u3951:
  5362  0D86  2D97               	goto	l3551
  5363  0D87                     u3950:
  5364  0D87                     l3543:
  5365  0D87  0A75               	incf	___fladd@bexp,w
  5366  0D88  1D03               	btfss	3,2
  5367  0D89  2D8B               	goto	u3961
  5368  0D8A  2D8C               	goto	u3960
  5369  0D8B                     u3961:
  5370  0D8B  2D94               	goto	l3547
  5371  0D8C                     u3960:
  5372  0D8C                     l3545:
  5373  0D8C  3000               	movlw	0
  5374  0D8D  00A3               	movwf	___fladd@b+3
  5375  0D8E  3000               	movlw	0
  5376  0D8F  00A2               	movwf	___fladd@b+2
  5377  0D90  3000               	movlw	0
  5378  0D91  00A1               	movwf	___fladd@b+1
  5379  0D92  3000               	movlw	0
  5380  0D93  00A0               	movwf	___fladd@b
  5381  0D94                     l3547:
  5382  0D94  17A2               	bsf	___fladd@b+2,7
  5383  0D95                     l3549:
  5384  0D95  01A3               	clrf	___fladd@b+3
  5385  0D96  2D9F               	goto	l3553
  5386  0D97                     l3551:
  5387  0D97  3000               	movlw	0
  5388  0D98  00A3               	movwf	___fladd@b+3
  5389  0D99  3000               	movlw	0
  5390  0D9A  00A2               	movwf	___fladd@b+2
  5391  0D9B  3000               	movlw	0
  5392  0D9C  00A1               	movwf	___fladd@b+1
  5393  0D9D  3000               	movlw	0
  5394  0D9E  00A0               	movwf	___fladd@b
  5395  0D9F                     l3553:
  5396  0D9F  0827               	movf	___fladd@a+3,w
  5397  0DA0  3980               	andlw	128
  5398  0DA1  00A8               	movwf	??___fladd
  5399  0DA2  0828               	movf	??___fladd,w
  5400  0DA3  00F4               	movwf	___fladd@aexp
  5401  0DA4                     l3555:
  5402  0DA4  0874               	movf	___fladd@aexp,w
  5403  0DA5  0673               	xorwf	___fladd@signs,w
  5404  0DA6  1903               	skipnz
  5405  0DA7  2DA9               	goto	u3971
  5406  0DA8  2DAA               	goto	u3970
  5407  0DA9                     u3971:
  5408  0DA9  2DAB               	goto	l3559
  5409  0DAA                     u3970:
  5410  0DAA                     l3557:
  5411  0DAA  1773               	bsf	___fladd@signs,6
  5412  0DAB                     l3559:
  5413  0DAB  0827               	movf	___fladd@a+3,w
  5414  0DAC  00A8               	movwf	??___fladd
  5415  0DAD  0728               	addwf	??___fladd,w
  5416  0DAE  00A9               	movwf	??___fladd+1
  5417  0DAF  0829               	movf	??___fladd+1,w
  5418  0DB0  00F4               	movwf	___fladd@aexp
  5419  0DB1                     l3561:
  5420  0DB1  1FA6               	btfss	___fladd@a+2,7
  5421  0DB2  2DB4               	goto	u3981
  5422  0DB3  2DB5               	goto	u3980
  5423  0DB4                     u3981:
  5424  0DB4  2DB6               	goto	l3565
  5425  0DB5                     u3980:
  5426  0DB5                     l3563:
  5427  0DB5  1474               	bsf	___fladd@aexp,0
  5428  0DB6                     l3565:
  5429  0DB6  0874               	movf	___fladd@aexp,w
  5430  0DB7  1903               	btfsc	3,2
  5431  0DB8  2DBA               	goto	u3991
  5432  0DB9  2DBB               	goto	u3990
  5433  0DBA                     u3991:
  5434  0DBA  2DCB               	goto	l3575
  5435  0DBB                     u3990:
  5436  0DBB                     l3567:
  5437  0DBB  0A74               	incf	___fladd@aexp,w
  5438  0DBC  1D03               	btfss	3,2
  5439  0DBD  2DBF               	goto	u4001
  5440  0DBE  2DC0               	goto	u4000
  5441  0DBF                     u4001:
  5442  0DBF  2DC8               	goto	l3571
  5443  0DC0                     u4000:
  5444  0DC0                     l3569:
  5445  0DC0  3000               	movlw	0
  5446  0DC1  00A7               	movwf	___fladd@a+3
  5447  0DC2  3000               	movlw	0
  5448  0DC3  00A6               	movwf	___fladd@a+2
  5449  0DC4  3000               	movlw	0
  5450  0DC5  00A5               	movwf	___fladd@a+1
  5451  0DC6  3000               	movlw	0
  5452  0DC7  00A4               	movwf	___fladd@a
  5453  0DC8                     l3571:
  5454  0DC8  17A6               	bsf	___fladd@a+2,7
  5455  0DC9                     l3573:
  5456  0DC9  01A7               	clrf	___fladd@a+3
  5457  0DCA  2DD3               	goto	l690
  5458  0DCB                     l3575:
  5459  0DCB  3000               	movlw	0
  5460  0DCC  00A7               	movwf	___fladd@a+3
  5461  0DCD  3000               	movlw	0
  5462  0DCE  00A6               	movwf	___fladd@a+2
  5463  0DCF  3000               	movlw	0
  5464  0DD0  00A5               	movwf	___fladd@a+1
  5465  0DD1  3000               	movlw	0
  5466  0DD2  00A4               	movwf	___fladd@a
  5467  0DD3                     l690:
  5468  0DD3  0875               	movf	___fladd@bexp,w
  5469  0DD4  0274               	subwf	___fladd@aexp,w
  5470  0DD5  1803               	skipnc
  5471  0DD6  2DD8               	goto	u4011
  5472  0DD7  2DD9               	goto	u4010
  5473  0DD8                     u4011:
  5474  0DD8  2E1D               	goto	l3611
  5475  0DD9                     u4010:
  5476  0DD9                     l3577:
  5477  0DD9  1F73               	btfss	___fladd@signs,6
  5478  0DDA  2DDC               	goto	u4021
  5479  0DDB  2DDD               	goto	u4020
  5480  0DDC                     u4021:
  5481  0DDC  2DE1               	goto	l3581
  5482  0DDD                     u4020:
  5483  0DDD                     l3579:
  5484  0DDD  3080               	movlw	128
  5485  0DDE  00A8               	movwf	??___fladd
  5486  0DDF  0828               	movf	??___fladd,w
  5487  0DE0  06F3               	xorwf	___fladd@signs,f
  5488  0DE1                     l3581:
  5489  0DE1  0875               	movf	___fladd@bexp,w
  5490  0DE2  00A8               	movwf	??___fladd
  5491  0DE3  0828               	movf	??___fladd,w
  5492  0DE4  00F6               	movwf	___fladd@grs
  5493  0DE5                     l3583:
  5494  0DE5  0874               	movf	___fladd@aexp,w
  5495  0DE6  00A8               	movwf	??___fladd
  5496  0DE7  0828               	movf	??___fladd,w
  5497  0DE8  00F5               	movwf	___fladd@bexp
  5498  0DE9                     l3585:
  5499  0DE9  0876               	movf	___fladd@grs,w
  5500  0DEA  00A8               	movwf	??___fladd
  5501  0DEB  0828               	movf	??___fladd,w
  5502  0DEC  00F4               	movwf	___fladd@aexp
  5503  0DED                     l3587:
  5504  0DED  0820               	movf	___fladd@b,w
  5505  0DEE  00A8               	movwf	??___fladd
  5506  0DEF  0828               	movf	??___fladd,w
  5507  0DF0  00F6               	movwf	___fladd@grs
  5508  0DF1                     l3589:
  5509  0DF1  0824               	movf	___fladd@a,w
  5510  0DF2  00A8               	movwf	??___fladd
  5511  0DF3  0828               	movf	??___fladd,w
  5512  0DF4  00A0               	movwf	___fladd@b
  5513  0DF5                     l3591:
  5514  0DF5  0876               	movf	___fladd@grs,w
  5515  0DF6  00A8               	movwf	??___fladd
  5516  0DF7  0828               	movf	??___fladd,w
  5517  0DF8  00A4               	movwf	___fladd@a
  5518  0DF9                     l3593:
  5519  0DF9  0821               	movf	___fladd@b+1,w
  5520  0DFA  00A8               	movwf	??___fladd
  5521  0DFB  0828               	movf	??___fladd,w
  5522  0DFC  00F6               	movwf	___fladd@grs
  5523  0DFD                     l3595:
  5524  0DFD  0825               	movf	___fladd@a+1,w
  5525  0DFE  00A8               	movwf	??___fladd
  5526  0DFF  0828               	movf	??___fladd,w
  5527  0E00  00A1               	movwf	___fladd@b+1
  5528  0E01                     l3597:
  5529  0E01  0876               	movf	___fladd@grs,w
  5530  0E02  00A8               	movwf	??___fladd
  5531  0E03  0828               	movf	??___fladd,w
  5532  0E04  00A5               	movwf	___fladd@a+1
  5533  0E05                     l3599:
  5534  0E05  0822               	movf	___fladd@b+2,w
  5535  0E06  00A8               	movwf	??___fladd
  5536  0E07  0828               	movf	??___fladd,w
  5537  0E08  00F6               	movwf	___fladd@grs
  5538  0E09                     l3601:
  5539  0E09  0826               	movf	___fladd@a+2,w
  5540  0E0A  00A8               	movwf	??___fladd
  5541  0E0B  0828               	movf	??___fladd,w
  5542  0E0C  00A2               	movwf	___fladd@b+2
  5543  0E0D                     l3603:
  5544  0E0D  0876               	movf	___fladd@grs,w
  5545  0E0E  00A8               	movwf	??___fladd
  5546  0E0F  0828               	movf	??___fladd,w
  5547  0E10  00A6               	movwf	___fladd@a+2
  5548  0E11                     l3605:
  5549  0E11  0823               	movf	___fladd@b+3,w
  5550  0E12  00A8               	movwf	??___fladd
  5551  0E13  0828               	movf	??___fladd,w
  5552  0E14  00F6               	movwf	___fladd@grs
  5553  0E15                     l3607:
  5554  0E15  0827               	movf	___fladd@a+3,w
  5555  0E16  00A8               	movwf	??___fladd
  5556  0E17  0828               	movf	??___fladd,w
  5557  0E18  00A3               	movwf	___fladd@b+3
  5558  0E19                     l3609:
  5559  0E19  0876               	movf	___fladd@grs,w
  5560  0E1A  00A8               	movwf	??___fladd
  5561  0E1B  0828               	movf	??___fladd,w
  5562  0E1C  00A7               	movwf	___fladd@a+3
  5563  0E1D                     l3611:
  5564  0E1D  01F6               	clrf	___fladd@grs
  5565  0E1E                     l3613:
  5566  0E1E  0874               	movf	___fladd@aexp,w
  5567  0E1F  00A8               	movwf	??___fladd
  5568  0E20  01A9               	clrf	??___fladd+1
  5569  0E21  0829               	movf	??___fladd+1,w
  5570  0E22  00AB               	movwf	??___fladd+3
  5571  0E23  0875               	movf	___fladd@bexp,w
  5572  0E24  0228               	subwf	??___fladd,w
  5573  0E25  00AA               	movwf	??___fladd+2
  5574  0E26  1C03               	skipc
  5575  0E27  03AB               	decf	??___fladd+3,f
  5576  0E28  082B               	movf	??___fladd+3,w
  5577  0E29  3A80               	xorlw	128
  5578  0E2A  00FF               	movwf	btemp+1
  5579  0E2B  3080               	movlw	128
  5580  0E2C  027F               	subwf	btemp+1,w
  5581  0E2D  1D03               	skipz
  5582  0E2E  2E31               	goto	u4035
  5583  0E2F  301A               	movlw	26
  5584  0E30  022A               	subwf	??___fladd+2,w
  5585  0E31                     u4035:
  5586  0E31  1C03               	skipc
  5587  0E32  2E34               	goto	u4031
  5588  0E33  2E35               	goto	u4030
  5589  0E34                     u4031:
  5590  0E34  2E76               	goto	l3629
  5591  0E35                     u4030:
  5592  0E35                     l3615:
  5593  0E35  1283               	bcf	3,5	;RP0=0, select bank0
  5594  0E36  1303               	bcf	3,6	;RP1=0, select bank0
  5595  0E37  0823               	movf	___fladd@b+3,w
  5596  0E38  0422               	iorwf	___fladd@b+2,w
  5597  0E39  0421               	iorwf	___fladd@b+1,w
  5598  0E3A  0420               	iorwf	___fladd@b,w
  5599  0E3B  1D03               	skipz
  5600  0E3C  2E3E               	goto	u4041
  5601  0E3D  2E40               	goto	u4040
  5602  0E3E                     u4041:
  5603  0E3E  3001               	movlw	1
  5604  0E3F  2E41               	goto	u4050
  5605  0E40                     u4040:
  5606  0E40  3000               	movlw	0
  5607  0E41                     u4050:
  5608  0E41  00A8               	movwf	??___fladd
  5609  0E42  0828               	movf	??___fladd,w
  5610  0E43  00F6               	movwf	___fladd@grs
  5611  0E44  3000               	movlw	0
  5612  0E45  00A3               	movwf	___fladd@b+3
  5613  0E46  3000               	movlw	0
  5614  0E47  00A2               	movwf	___fladd@b+2
  5615  0E48  3000               	movlw	0
  5616  0E49  00A1               	movwf	___fladd@b+1
  5617  0E4A  3000               	movlw	0
  5618  0E4B  00A0               	movwf	___fladd@b
  5619  0E4C  0874               	movf	___fladd@aexp,w
  5620  0E4D  00A8               	movwf	??___fladd
  5621  0E4E  0828               	movf	??___fladd,w
  5622  0E4F  00F5               	movwf	___fladd@bexp
  5623  0E50  2E7C               	goto	l694
  5624  0E51                     l696:
  5625  0E51  1C76               	btfss	___fladd@grs,0
  5626  0E52  2E54               	goto	u4061
  5627  0E53  2E55               	goto	u4060
  5628  0E54                     u4061:
  5629  0E54  2E60               	goto	l3619
  5630  0E55                     u4060:
  5631  0E55                     l3617:
  5632  0E55  0876               	movf	___fladd@grs,w
  5633  0E56  1283               	bcf	3,5	;RP0=0, select bank0
  5634  0E57  1303               	bcf	3,6	;RP1=0, select bank0
  5635  0E58  00A8               	movwf	??___fladd
  5636  0E59  1003               	clrc
  5637  0E5A  0C28               	rrf	??___fladd,w
  5638  0E5B  3801               	iorlw	1
  5639  0E5C  00A9               	movwf	??___fladd+1
  5640  0E5D  0829               	movf	??___fladd+1,w
  5641  0E5E  00F6               	movwf	___fladd@grs
  5642  0E5F  2E62               	goto	l3621
  5643  0E60                     l3619:
  5644  0E60  1003               	clrc
  5645  0E61  0CF6               	rrf	___fladd@grs,f
  5646  0E62                     l3621:
  5647  0E62  1283               	bcf	3,5	;RP0=0, select bank0
  5648  0E63  1303               	bcf	3,6	;RP1=0, select bank0
  5649  0E64  1C20               	btfss	___fladd@b,0
  5650  0E65  2E67               	goto	u4071
  5651  0E66  2E68               	goto	u4070
  5652  0E67                     u4071:
  5653  0E67  2E69               	goto	l3625
  5654  0E68                     u4070:
  5655  0E68                     l3623:
  5656  0E68  17F6               	bsf	___fladd@grs,7
  5657  0E69                     l3625:
  5658  0E69  3001               	movlw	1
  5659  0E6A  00A8               	movwf	??___fladd
  5660  0E6B                     u4085:
  5661  0E6B  0D23               	rlf	___fladd@b+3,w
  5662  0E6C  0CA3               	rrf	___fladd@b+3,f
  5663  0E6D  0CA2               	rrf	___fladd@b+2,f
  5664  0E6E  0CA1               	rrf	___fladd@b+1,f
  5665  0E6F  0CA0               	rrf	___fladd@b,f
  5666  0E70  0BA8               	decfsz	??___fladd& (0+127),f
  5667  0E71  2E6B               	goto	u4085
  5668  0E72                     l3627:
  5669  0E72  3001               	movlw	1
  5670  0E73  00A8               	movwf	??___fladd
  5671  0E74  0828               	movf	??___fladd,w
  5672  0E75  07F5               	addwf	___fladd@bexp,f
  5673  0E76                     l3629:
  5674  0E76  0874               	movf	___fladd@aexp,w
  5675  0E77  0275               	subwf	___fladd@bexp,w
  5676  0E78  1C03               	skipc
  5677  0E79  2E7B               	goto	u4091
  5678  0E7A  2E7C               	goto	u4090
  5679  0E7B                     u4091:
  5680  0E7B  2E51               	goto	l696
  5681  0E7C                     u4090:
  5682  0E7C                     l694:
  5683  0E7C  1B73               	btfsc	___fladd@signs,6
  5684  0E7D  2E7F               	goto	u4101
  5685  0E7E  2E80               	goto	u4100
  5686  0E7F                     u4101:
  5687  0E7F  2ECF               	goto	l3655
  5688  0E80                     u4100:
  5689  0E80                     l3631:
  5690  0E80  0875               	movf	___fladd@bexp,w
  5691  0E81  1D03               	btfss	3,2
  5692  0E82  2E84               	goto	u4111
  5693  0E83  2E85               	goto	u4110
  5694  0E84                     u4111:
  5695  0E84  2E90               	goto	l3637
  5696  0E85                     u4110:
  5697  0E85                     l3633:
  5698  0E85  3000               	movlw	0
  5699  0E86  1283               	bcf	3,5	;RP0=0, select bank0
  5700  0E87  1303               	bcf	3,6	;RP1=0, select bank0
  5701  0E88  00A3               	movwf	?___fladd+3
  5702  0E89  3000               	movlw	0
  5703  0E8A  00A2               	movwf	?___fladd+2
  5704  0E8B  3000               	movlw	0
  5705  0E8C  00A1               	movwf	?___fladd+1
  5706  0E8D  3000               	movlw	0
  5707  0E8E  00A0               	movwf	?___fladd
  5708  0E8F  2FFF               	goto	l703
  5709  0E90                     l3637:
  5710  0E90  1283               	bcf	3,5	;RP0=0, select bank0
  5711  0E91  1303               	bcf	3,6	;RP1=0, select bank0
  5712  0E92  0824               	movf	___fladd@a,w
  5713  0E93  07A0               	addwf	___fladd@b,f
  5714  0E94  0825               	movf	___fladd@a+1,w
  5715  0E95  1103               	clrz
  5716  0E96  1803               	skipnc
  5717  0E97  3E01               	addlw	1
  5718  0E98  1903               	skipnz
  5719  0E99  2E9B               	goto	u4121
  5720  0E9A  07A1               	addwf	___fladd@b+1,f
  5721  0E9B                     u4121:
  5722  0E9B  0826               	movf	___fladd@a+2,w
  5723  0E9C  1103               	clrz
  5724  0E9D  1803               	skipnc
  5725  0E9E  3E01               	addlw	1
  5726  0E9F  1903               	skipnz
  5727  0EA0  2EA2               	goto	u4122
  5728  0EA1  07A2               	addwf	___fladd@b+2,f
  5729  0EA2                     u4122:
  5730  0EA2  0827               	movf	___fladd@a+3,w
  5731  0EA3  1103               	clrz
  5732  0EA4  1803               	skipnc
  5733  0EA5  3E01               	addlw	1
  5734  0EA6  1903               	skipnz
  5735  0EA7  2EA9               	goto	u4123
  5736  0EA8  07A3               	addwf	___fladd@b+3,f
  5737  0EA9                     u4123:
  5738  0EA9                     l3639:
  5739  0EA9  1C23               	btfss	___fladd@b+3,0
  5740  0EAA  2EAC               	goto	u4131
  5741  0EAB  2EAD               	goto	u4130
  5742  0EAC                     u4131:
  5743  0EAC  2F85               	goto	l3689
  5744  0EAD                     u4130:
  5745  0EAD                     l3641:
  5746  0EAD  1C76               	btfss	___fladd@grs,0
  5747  0EAE  2EB0               	goto	u4141
  5748  0EAF  2EB1               	goto	u4140
  5749  0EB0                     u4141:
  5750  0EB0  2EBA               	goto	l3645
  5751  0EB1                     u4140:
  5752  0EB1                     l3643:
  5753  0EB1  0876               	movf	___fladd@grs,w
  5754  0EB2  00A8               	movwf	??___fladd
  5755  0EB3  1003               	clrc
  5756  0EB4  0C28               	rrf	??___fladd,w
  5757  0EB5  3801               	iorlw	1
  5758  0EB6  00A9               	movwf	??___fladd+1
  5759  0EB7  0829               	movf	??___fladd+1,w
  5760  0EB8  00F6               	movwf	___fladd@grs
  5761  0EB9  2EBC               	goto	l3647
  5762  0EBA                     l3645:
  5763  0EBA  1003               	clrc
  5764  0EBB  0CF6               	rrf	___fladd@grs,f
  5765  0EBC                     l3647:
  5766  0EBC  1C20               	btfss	___fladd@b,0
  5767  0EBD  2EBF               	goto	u4151
  5768  0EBE  2EC0               	goto	u4150
  5769  0EBF                     u4151:
  5770  0EBF  2EC1               	goto	l3651
  5771  0EC0                     u4150:
  5772  0EC0                     l3649:
  5773  0EC0  17F6               	bsf	___fladd@grs,7
  5774  0EC1                     l3651:
  5775  0EC1  3001               	movlw	1
  5776  0EC2  00A8               	movwf	??___fladd
  5777  0EC3                     u4165:
  5778  0EC3  0D23               	rlf	___fladd@b+3,w
  5779  0EC4  0CA3               	rrf	___fladd@b+3,f
  5780  0EC5  0CA2               	rrf	___fladd@b+2,f
  5781  0EC6  0CA1               	rrf	___fladd@b+1,f
  5782  0EC7  0CA0               	rrf	___fladd@b,f
  5783  0EC8  0BA8               	decfsz	??___fladd& (0+127),f
  5784  0EC9  2EC3               	goto	u4165
  5785  0ECA                     l3653:
  5786  0ECA  3001               	movlw	1
  5787  0ECB  00A8               	movwf	??___fladd
  5788  0ECC  0828               	movf	??___fladd,w
  5789  0ECD  07F5               	addwf	___fladd@bexp,f
  5790  0ECE  2F85               	goto	l3689
  5791  0ECF                     l3655:
  5792  0ECF  1283               	bcf	3,5	;RP0=0, select bank0
  5793  0ED0  1303               	bcf	3,6	;RP1=0, select bank0
  5794  0ED1  0823               	movf	___fladd@b+3,w
  5795  0ED2  3A80               	xorlw	128
  5796  0ED3  00FF               	movwf	btemp+1
  5797  0ED4  0827               	movf	___fladd@a+3,w
  5798  0ED5  3A80               	xorlw	128
  5799  0ED6  027F               	subwf	btemp+1,w
  5800  0ED7  1D03               	skipz
  5801  0ED8  2EE3               	goto	u4173
  5802  0ED9  0826               	movf	___fladd@a+2,w
  5803  0EDA  0222               	subwf	___fladd@b+2,w
  5804  0EDB  1D03               	skipz
  5805  0EDC  2EE3               	goto	u4173
  5806  0EDD  0825               	movf	___fladd@a+1,w
  5807  0EDE  0221               	subwf	___fladd@b+1,w
  5808  0EDF  1D03               	skipz
  5809  0EE0  2EE3               	goto	u4173
  5810  0EE1  0824               	movf	___fladd@a,w
  5811  0EE2  0220               	subwf	___fladd@b,w
  5812  0EE3                     u4173:
  5813  0EE3  1803               	skipnc
  5814  0EE4  2EE6               	goto	u4171
  5815  0EE5  2EE7               	goto	u4170
  5816  0EE6                     u4171:
  5817  0EE6  2F3F               	goto	l3665
  5818  0EE7                     u4170:
  5819  0EE7                     l3657:
  5820  0EE7  30FF               	movlw	255
  5821  0EE8  00A8               	movwf	??___fladd
  5822  0EE9  30FF               	movlw	255
  5823  0EEA  00A9               	movwf	??___fladd+1
  5824  0EEB  30FF               	movlw	255
  5825  0EEC  00AA               	movwf	??___fladd+2
  5826  0EED  30FF               	movlw	255
  5827  0EEE  00AB               	movwf	??___fladd+3
  5828  0EEF  0824               	movf	___fladd@a,w
  5829  0EF0  00AC               	movwf	??___fladd+4
  5830  0EF1  0825               	movf	___fladd@a+1,w
  5831  0EF2  00AD               	movwf	??___fladd+5
  5832  0EF3  0826               	movf	___fladd@a+2,w
  5833  0EF4  00AE               	movwf	??___fladd+6
  5834  0EF5  0827               	movf	___fladd@a+3,w
  5835  0EF6  00AF               	movwf	??___fladd+7
  5836  0EF7  0820               	movf	___fladd@b,w
  5837  0EF8  02AC               	subwf	??___fladd+4,f
  5838  0EF9  0821               	movf	___fladd@b+1,w
  5839  0EFA  1C03               	skipc
  5840  0EFB  0F21               	incfsz	___fladd@b+1,w
  5841  0EFC  2EFE               	goto	u4181
  5842  0EFD  2EFF               	goto	u4182
  5843  0EFE                     u4181:
  5844  0EFE  02AD               	subwf	??___fladd+5,f
  5845  0EFF                     u4182:
  5846  0EFF  0822               	movf	___fladd@b+2,w
  5847  0F00  1C03               	skipc
  5848  0F01  0F22               	incfsz	___fladd@b+2,w
  5849  0F02  2F04               	goto	u4183
  5850  0F03  2F05               	goto	u4184
  5851  0F04                     u4183:
  5852  0F04  02AE               	subwf	??___fladd+6,f
  5853  0F05                     u4184:
  5854  0F05  0823               	movf	___fladd@b+3,w
  5855  0F06  1C03               	skipc
  5856  0F07  0F23               	incfsz	___fladd@b+3,w
  5857  0F08  2F0A               	goto	u4185
  5858  0F09  2F0B               	goto	u4186
  5859  0F0A                     u4185:
  5860  0F0A  02AF               	subwf	??___fladd+7,f
  5861  0F0B                     u4186:
  5862  0F0B  082C               	movf	??___fladd+4,w
  5863  0F0C  07A8               	addwf	??___fladd,f
  5864  0F0D  082D               	movf	??___fladd+5,w
  5865  0F0E  1803               	skipnc
  5866  0F0F  0F2D               	incfsz	??___fladd+5,w
  5867  0F10  2F12               	goto	u4190
  5868  0F11  2F13               	goto	u4191
  5869  0F12                     u4190:
  5870  0F12  07A9               	addwf	??___fladd+1,f
  5871  0F13                     u4191:
  5872  0F13  082E               	movf	??___fladd+6,w
  5873  0F14  1803               	skipnc
  5874  0F15  0F2E               	incfsz	??___fladd+6,w
  5875  0F16  2F18               	goto	u4192
  5876  0F17  2F19               	goto	u4193
  5877  0F18                     u4192:
  5878  0F18  07AA               	addwf	??___fladd+2,f
  5879  0F19                     u4193:
  5880  0F19  082F               	movf	??___fladd+7,w
  5881  0F1A  1803               	skipnc
  5882  0F1B  0A2F               	incf	??___fladd+7,w
  5883  0F1C  07AB               	addwf	??___fladd+3,f
  5884  0F1D  082B               	movf	??___fladd+3,w
  5885  0F1E  00A3               	movwf	___fladd@b+3
  5886  0F1F  082A               	movf	??___fladd+2,w
  5887  0F20  00A2               	movwf	___fladd@b+2
  5888  0F21  0829               	movf	??___fladd+1,w
  5889  0F22  00A1               	movwf	___fladd@b+1
  5890  0F23  0828               	movf	??___fladd,w
  5891  0F24  00A0               	movwf	___fladd@b
  5892  0F25                     l3659:
  5893  0F25  3080               	movlw	128
  5894  0F26  00A8               	movwf	??___fladd
  5895  0F27  0828               	movf	??___fladd,w
  5896  0F28  06F3               	xorwf	___fladd@signs,f
  5897  0F29  09F6               	comf	___fladd@grs,f
  5898  0F2A  0AF6               	incf	___fladd@grs,f
  5899  0F2B                     l3661:
  5900  0F2B  0876               	movf	___fladd@grs,w
  5901  0F2C  1D03               	btfss	3,2
  5902  0F2D  2F2F               	goto	u4201
  5903  0F2E  2F30               	goto	u4200
  5904  0F2F                     u4201:
  5905  0F2F  2F4D               	goto	l711
  5906  0F30                     u4200:
  5907  0F30                     l3663:
  5908  0F30  3001               	movlw	1
  5909  0F31  07A0               	addwf	___fladd@b,f
  5910  0F32  3000               	movlw	0
  5911  0F33  1803               	skipnc
  5912  0F34  3001               	movlw	1
  5913  0F35  07A1               	addwf	___fladd@b+1,f
  5914  0F36  3000               	movlw	0
  5915  0F37  1803               	skipnc
  5916  0F38  3001               	movlw	1
  5917  0F39  07A2               	addwf	___fladd@b+2,f
  5918  0F3A  3000               	movlw	0
  5919  0F3B  1803               	skipnc
  5920  0F3C  3001               	movlw	1
  5921  0F3D  07A3               	addwf	___fladd@b+3,f
  5922  0F3E  2F4D               	goto	l711
  5923  0F3F                     l3665:
  5924  0F3F  0824               	movf	___fladd@a,w
  5925  0F40  02A0               	subwf	___fladd@b,f
  5926  0F41  0825               	movf	___fladd@a+1,w
  5927  0F42  1C03               	skipc
  5928  0F43  0F25               	incfsz	___fladd@a+1,w
  5929  0F44  02A1               	subwf	___fladd@b+1,f
  5930  0F45  0826               	movf	___fladd@a+2,w
  5931  0F46  1C03               	skipc
  5932  0F47  0F26               	incfsz	___fladd@a+2,w
  5933  0F48  02A2               	subwf	___fladd@b+2,f
  5934  0F49  0827               	movf	___fladd@a+3,w
  5935  0F4A  1C03               	skipc
  5936  0F4B  0F27               	incfsz	___fladd@a+3,w
  5937  0F4C  02A3               	subwf	___fladd@b+3,f
  5938  0F4D                     l711:
  5939  0F4D  0823               	movf	___fladd@b+3,w
  5940  0F4E  0422               	iorwf	___fladd@b+2,w
  5941  0F4F  0421               	iorwf	___fladd@b+1,w
  5942  0F50  0420               	iorwf	___fladd@b,w
  5943  0F51  1D03               	skipz
  5944  0F52  2F54               	goto	u4211
  5945  0F53  2F55               	goto	u4210
  5946  0F54                     u4211:
  5947  0F54  2F81               	goto	l3687
  5948  0F55                     u4210:
  5949  0F55                     l3667:
  5950  0F55  0876               	movf	___fladd@grs,w
  5951  0F56  1D03               	btfss	3,2
  5952  0F57  2F59               	goto	u4221
  5953  0F58  2F5A               	goto	u4220
  5954  0F59                     u4221:
  5955  0F59  2F81               	goto	l3687
  5956  0F5A                     u4220:
  5957  0F5A                     l3669:
  5958  0F5A  3000               	movlw	0
  5959  0F5B  00A3               	movwf	?___fladd+3
  5960  0F5C  3000               	movlw	0
  5961  0F5D  00A2               	movwf	?___fladd+2
  5962  0F5E  3000               	movlw	0
  5963  0F5F  00A1               	movwf	?___fladd+1
  5964  0F60  3000               	movlw	0
  5965  0F61  00A0               	movwf	?___fladd
  5966  0F62  2FFF               	goto	l703
  5967  0F63                     l3673:
  5968  0F63  3001               	movlw	1
  5969  0F64  00A8               	movwf	??___fladd
  5970  0F65                     u4235:
  5971  0F65  1003               	clrc
  5972  0F66  0DA0               	rlf	___fladd@b,f
  5973  0F67  0DA1               	rlf	___fladd@b+1,f
  5974  0F68  0DA2               	rlf	___fladd@b+2,f
  5975  0F69  0DA3               	rlf	___fladd@b+3,f
  5976  0F6A  0BA8               	decfsz	??___fladd,f
  5977  0F6B  2F65               	goto	u4235
  5978  0F6C                     l3675:
  5979  0F6C  1FF6               	btfss	___fladd@grs,7
  5980  0F6D  2F6F               	goto	u4241
  5981  0F6E  2F70               	goto	u4240
  5982  0F6F                     u4241:
  5983  0F6F  2F71               	goto	l715
  5984  0F70                     u4240:
  5985  0F70                     l3677:
  5986  0F70  1420               	bsf	___fladd@b,0
  5987  0F71                     l715:
  5988  0F71  1C76               	btfss	___fladd@grs,0
  5989  0F72  2F74               	goto	u4251
  5990  0F73  2F75               	goto	u4250
  5991  0F74                     u4251:
  5992  0F74  2F78               	goto	l3681
  5993  0F75                     u4250:
  5994  0F75                     l3679:
  5995  0F75  1403               	setc
  5996  0F76  0DF6               	rlf	___fladd@grs,f
  5997  0F77  2F7A               	goto	l3683
  5998  0F78                     l3681:
  5999  0F78  1003               	clrc
  6000  0F79  0DF6               	rlf	___fladd@grs,f
  6001  0F7A                     l3683:
  6002  0F7A  0875               	movf	___fladd@bexp,w
  6003  0F7B  1903               	btfsc	3,2
  6004  0F7C  2F7E               	goto	u4261
  6005  0F7D  2F7F               	goto	u4260
  6006  0F7E                     u4261:
  6007  0F7E  2F81               	goto	l3687
  6008  0F7F                     u4260:
  6009  0F7F                     l3685:
  6010  0F7F  3001               	movlw	1
  6011  0F80  02F5               	subwf	___fladd@bexp,f
  6012  0F81                     l3687:
  6013  0F81  1FA2               	btfss	___fladd@b+2,7
  6014  0F82  2F84               	goto	u4271
  6015  0F83  2F85               	goto	u4270
  6016  0F84                     u4271:
  6017  0F84  2F63               	goto	l3673
  6018  0F85                     u4270:
  6019  0F85                     l3689:
  6020  0F85  01F4               	clrf	___fladd@aexp
  6021  0F86                     l3691:
  6022  0F86  1FF6               	btfss	___fladd@grs,7
  6023  0F87  2F89               	goto	u4281
  6024  0F88  2F8A               	goto	u4280
  6025  0F89                     u4281:
  6026  0F89  2F98               	goto	l3699
  6027  0F8A                     u4280:
  6028  0F8A                     l3693:
  6029  0F8A  0876               	movf	___fladd@grs,w
  6030  0F8B  397F               	andlw	127
  6031  0F8C  1903               	btfsc	3,2
  6032  0F8D  2F8F               	goto	u4291
  6033  0F8E  2F90               	goto	u4290
  6034  0F8F                     u4291:
  6035  0F8F  2F93               	goto	l721
  6036  0F90                     u4290:
  6037  0F90                     l3695:
  6038  0F90  01F4               	clrf	___fladd@aexp
  6039  0F91  0AF4               	incf	___fladd@aexp,f
  6040  0F92  2F98               	goto	l3699
  6041  0F93                     l721:
  6042  0F93  1C20               	btfss	___fladd@b,0
  6043  0F94  2F96               	goto	u4301
  6044  0F95  2F97               	goto	u4300
  6045  0F96                     u4301:
  6046  0F96  2F98               	goto	l3699
  6047  0F97                     u4300:
  6048  0F97  2F90               	goto	l3695
  6049  0F98                     l3699:
  6050  0F98  0874               	movf	___fladd@aexp,w
  6051  0F99  1903               	btfsc	3,2
  6052  0F9A  2F9C               	goto	u4311
  6053  0F9B  2F9D               	goto	u4310
  6054  0F9C                     u4311:
  6055  0F9C  2FD1               	goto	l724
  6056  0F9D                     u4310:
  6057  0F9D                     l3701:
  6058  0F9D  3001               	movlw	1
  6059  0F9E  07A0               	addwf	___fladd@b,f
  6060  0F9F  3000               	movlw	0
  6061  0FA0  1803               	skipnc
  6062  0FA1  3001               	movlw	1
  6063  0FA2  07A1               	addwf	___fladd@b+1,f
  6064  0FA3  3000               	movlw	0
  6065  0FA4  1803               	skipnc
  6066  0FA5  3001               	movlw	1
  6067  0FA6  07A2               	addwf	___fladd@b+2,f
  6068  0FA7  3000               	movlw	0
  6069  0FA8  1803               	skipnc
  6070  0FA9  3001               	movlw	1
  6071  0FAA  07A3               	addwf	___fladd@b+3,f
  6072  0FAB                     l3703:
  6073  0FAB  1C23               	btfss	___fladd@b+3,0
  6074  0FAC  2FAE               	goto	u4321
  6075  0FAD  2FAF               	goto	u4320
  6076  0FAE                     u4321:
  6077  0FAE  2FD1               	goto	l724
  6078  0FAF                     u4320:
  6079  0FAF                     l3705:
  6080  0FAF  0820               	movf	___fladd@b,w
  6081  0FB0  00A8               	movwf	??___fladd
  6082  0FB1  0821               	movf	___fladd@b+1,w
  6083  0FB2  00A9               	movwf	??___fladd+1
  6084  0FB3  0822               	movf	___fladd@b+2,w
  6085  0FB4  00AA               	movwf	??___fladd+2
  6086  0FB5  0823               	movf	___fladd@b+3,w
  6087  0FB6  00AB               	movwf	??___fladd+3
  6088  0FB7  3001               	movlw	1
  6089  0FB8  00AC               	movwf	??___fladd+4
  6090  0FB9                     u4335:
  6091  0FB9  0D2B               	rlf	??___fladd+3,w
  6092  0FBA  0CAB               	rrf	??___fladd+3,f
  6093  0FBB  0CAA               	rrf	??___fladd+2,f
  6094  0FBC  0CA9               	rrf	??___fladd+1,f
  6095  0FBD  0CA8               	rrf	??___fladd,f
  6096  0FBE                     u4330:
  6097  0FBE  0BAC               	decfsz	??___fladd+4,f
  6098  0FBF  2FB9               	goto	u4335
  6099  0FC0  082B               	movf	??___fladd+3,w
  6100  0FC1  00A3               	movwf	___fladd@b+3
  6101  0FC2  082A               	movf	??___fladd+2,w
  6102  0FC3  00A2               	movwf	___fladd@b+2
  6103  0FC4  0829               	movf	??___fladd+1,w
  6104  0FC5  00A1               	movwf	___fladd@b+1
  6105  0FC6  0828               	movf	??___fladd,w
  6106  0FC7  00A0               	movwf	___fladd@b
  6107  0FC8  0A75               	incf	___fladd@bexp,w
  6108  0FC9  1903               	btfsc	3,2
  6109  0FCA  2FCC               	goto	u4341
  6110  0FCB  2FCD               	goto	u4340
  6111  0FCC                     u4341:
  6112  0FCC  2FD1               	goto	l724
  6113  0FCD                     u4340:
  6114  0FCD                     l3707:
  6115  0FCD  3001               	movlw	1
  6116  0FCE  00A8               	movwf	??___fladd
  6117  0FCF  0828               	movf	??___fladd,w
  6118  0FD0  07F5               	addwf	___fladd@bexp,f
  6119  0FD1                     l724:
  6120  0FD1  0A75               	incf	___fladd@bexp,w
  6121  0FD2  1903               	btfsc	3,2
  6122  0FD3  2FD5               	goto	u4351
  6123  0FD4  2FD6               	goto	u4350
  6124  0FD5                     u4351:
  6125  0FD5  2FDB               	goto	l3711
  6126  0FD6                     u4350:
  6127  0FD6                     l3709:
  6128  0FD6  0875               	movf	___fladd@bexp,w
  6129  0FD7  1D03               	btfss	3,2
  6130  0FD8  2FDA               	goto	u4361
  6131  0FD9  2FDB               	goto	u4360
  6132  0FDA                     u4361:
  6133  0FDA  2FE9               	goto	l3717
  6134  0FDB                     u4360:
  6135  0FDB                     l3711:
  6136  0FDB  3000               	movlw	0
  6137  0FDC  00A3               	movwf	___fladd@b+3
  6138  0FDD  3000               	movlw	0
  6139  0FDE  00A2               	movwf	___fladd@b+2
  6140  0FDF  3000               	movlw	0
  6141  0FE0  00A1               	movwf	___fladd@b+1
  6142  0FE1  3000               	movlw	0
  6143  0FE2  00A0               	movwf	___fladd@b
  6144  0FE3                     l3713:
  6145  0FE3  0875               	movf	___fladd@bexp,w
  6146  0FE4  1D03               	btfss	3,2
  6147  0FE5  2FE7               	goto	u4371
  6148  0FE6  2FE8               	goto	u4370
  6149  0FE7                     u4371:
  6150  0FE7  2FE9               	goto	l3717
  6151  0FE8                     u4370:
  6152  0FE8                     l3715:
  6153  0FE8  01F3               	clrf	___fladd@signs
  6154  0FE9                     l3717:
  6155  0FE9  1C75               	btfss	___fladd@bexp,0
  6156  0FEA  2FEC               	goto	u4381
  6157  0FEB  2FED               	goto	u4380
  6158  0FEC                     u4381:
  6159  0FEC  2FEF               	goto	l3721
  6160  0FED                     u4380:
  6161  0FED                     l3719:
  6162  0FED  17A2               	bsf	___fladd@b+2,7
  6163  0FEE  2FF3               	goto	l732
  6164  0FEF                     l3721:
  6165  0FEF  307F               	movlw	127
  6166  0FF0  00A8               	movwf	??___fladd
  6167  0FF1  0828               	movf	??___fladd,w
  6168  0FF2  05A2               	andwf	___fladd@b+2,f
  6169  0FF3                     l732:
  6170  0FF3  0875               	movf	___fladd@bexp,w
  6171  0FF4  00A8               	movwf	??___fladd
  6172  0FF5  1003               	clrc
  6173  0FF6  0C28               	rrf	??___fladd,w
  6174  0FF7  00A9               	movwf	??___fladd+1
  6175  0FF8  0829               	movf	??___fladd+1,w
  6176  0FF9  00A3               	movwf	___fladd@b+3
  6177  0FFA                     l3723:
  6178  0FFA  1FF3               	btfss	___fladd@signs,7
  6179  0FFB  2FFD               	goto	u4391
  6180  0FFC  2FFE               	goto	u4390
  6181  0FFD                     u4391:
  6182  0FFD  2FFF               	goto	l733
  6183  0FFE                     u4390:
  6184  0FFE                     l3725:
  6185  0FFE  17A3               	bsf	___fladd@b+3,7
  6186  0FFF                     l733:
  6187  0FFF                     l703:
  6188  0FFF  0008               	return
  6189  1000                     __end_of___fladd:
  6190                           
  6191                           	psect	text12
  6192  0439                     __ptext12:	
  6193 ;; *************** function ___flmul *****************
  6194 ;; Defined at:
  6195 ;;		line 8 in file "C:\Program Files\Microchip\xc8\v2.32\pic\sources\c90\common\sprcmul.c"
  6196 ;; Parameters:    Size  Location     Type
  6197 ;;  b               4   10[BANK0 ] unsigned char 
  6198 ;;  a               4   14[BANK0 ] unsigned char 
  6199 ;; Auto vars:     Size  Location     Type
  6200 ;;  prod            4   30[BANK0 ] struct .
  6201 ;;  grs             4   25[BANK0 ] unsigned long 
  6202 ;;  temp            2   34[BANK0 ] struct .
  6203 ;;  bexp            1   29[BANK0 ] unsigned char 
  6204 ;;  aexp            1   24[BANK0 ] unsigned char 
  6205 ;;  sign            1   23[BANK0 ] unsigned char 
  6206 ;; Return value:  Size  Location     Type
  6207 ;;                  4   10[BANK0 ] unsigned char 
  6208 ;; Registers used:
  6209 ;;		wreg, status,2, status,0, btemp+1, pclath, cstack
  6210 ;; Tracked objects:
  6211 ;;		On entry : 0/0
  6212 ;;		On exit  : 0/0
  6213 ;;		Unchanged: 0/0
  6214 ;; Data sizes:     COMMON   BANK0   BANK1   BANK3   BANK2
  6215 ;;      Params:         0       8       0       0       0
  6216 ;;      Locals:         0      13       0       0       0
  6217 ;;      Temps:          0       5       0       0       0
  6218 ;;      Totals:         0      26       0       0       0
  6219 ;;Total ram usage:       26 bytes
  6220 ;; Hardware stack levels used: 1
  6221 ;; Hardware stack levels required when called: 2
  6222 ;; This function calls:
  6223 ;;		__Umul8_16
  6224 ;; This function is called by:
  6225 ;;		_run_program
  6226 ;; This function uses a non-reentrant model
  6227 ;;
  6228                           
  6229                           
  6230                           ;psect for function ___flmul
  6231  0439                     ___flmul:
  6232  0439                     l3943:	
  6233                           ;incstack = 0
  6234                           ; Regs used in ___flmul: [wreg+status,2+status,0+btemp+1+pclath+cstack]
  6235                           
  6236  0439  1283               	bcf	3,5	;RP0=0, select bank0
  6237  043A  1303               	bcf	3,6	;RP1=0, select bank0
  6238  043B  082D               	movf	___flmul@b+3,w
  6239  043C  3980               	andlw	128
  6240  043D  00B2               	movwf	??___flmul
  6241  043E  0832               	movf	??___flmul,w
  6242  043F  00B7               	movwf	___flmul@sign
  6243  0440                     l3945:
  6244  0440  082D               	movf	___flmul@b+3,w
  6245  0441  00B2               	movwf	??___flmul
  6246  0442  0732               	addwf	??___flmul,w
  6247  0443  00B3               	movwf	??___flmul+1
  6248  0444  0833               	movf	??___flmul+1,w
  6249  0445  00BD               	movwf	___flmul@bexp
  6250  0446                     l3947:
  6251  0446  1FAC               	btfss	___flmul@b+2,7
  6252  0447  2C49               	goto	u4851
  6253  0448  2C4A               	goto	u4850
  6254  0449                     u4851:
  6255  0449  2C4B               	goto	l3951
  6256  044A                     u4850:
  6257  044A                     l3949:
  6258  044A  143D               	bsf	___flmul@bexp,0
  6259  044B                     l3951:
  6260  044B  083D               	movf	___flmul@bexp,w
  6261  044C  1903               	btfsc	3,2
  6262  044D  2C4F               	goto	u4861
  6263  044E  2C50               	goto	u4860
  6264  044F                     u4861:
  6265  044F  2C5F               	goto	l3959
  6266  0450                     u4860:
  6267  0450                     l3953:
  6268  0450  0A3D               	incf	___flmul@bexp,w
  6269  0451  1D03               	btfss	3,2
  6270  0452  2C54               	goto	u4871
  6271  0453  2C55               	goto	u4870
  6272  0454                     u4871:
  6273  0454  2C5D               	goto	l3957
  6274  0455                     u4870:
  6275  0455                     l3955:
  6276  0455  3000               	movlw	0
  6277  0456  00AD               	movwf	___flmul@b+3
  6278  0457  3000               	movlw	0
  6279  0458  00AC               	movwf	___flmul@b+2
  6280  0459  3000               	movlw	0
  6281  045A  00AB               	movwf	___flmul@b+1
  6282  045B  3000               	movlw	0
  6283  045C  00AA               	movwf	___flmul@b
  6284  045D                     l3957:
  6285  045D  17AC               	bsf	___flmul@b+2,7
  6286  045E  2C67               	goto	l3961
  6287  045F                     l3959:
  6288  045F  3000               	movlw	0
  6289  0460  00AD               	movwf	___flmul@b+3
  6290  0461  3000               	movlw	0
  6291  0462  00AC               	movwf	___flmul@b+2
  6292  0463  3000               	movlw	0
  6293  0464  00AB               	movwf	___flmul@b+1
  6294  0465  3000               	movlw	0
  6295  0466  00AA               	movwf	___flmul@b
  6296  0467                     l3961:
  6297  0467  0831               	movf	___flmul@a+3,w
  6298  0468  3980               	andlw	128
  6299  0469  00B2               	movwf	??___flmul
  6300  046A  0832               	movf	??___flmul,w
  6301  046B  06B7               	xorwf	___flmul@sign,f
  6302  046C                     l3963:
  6303  046C  0831               	movf	___flmul@a+3,w
  6304  046D  00B2               	movwf	??___flmul
  6305  046E  0732               	addwf	??___flmul,w
  6306  046F  00B3               	movwf	??___flmul+1
  6307  0470  0833               	movf	??___flmul+1,w
  6308  0471  00B8               	movwf	___flmul@aexp
  6309  0472                     l3965:
  6310  0472  1FB0               	btfss	___flmul@a+2,7
  6311  0473  2C75               	goto	u4881
  6312  0474  2C76               	goto	u4880
  6313  0475                     u4881:
  6314  0475  2C77               	goto	l3969
  6315  0476                     u4880:
  6316  0476                     l3967:
  6317  0476  1438               	bsf	___flmul@aexp,0
  6318  0477                     l3969:
  6319  0477  0838               	movf	___flmul@aexp,w
  6320  0478  1903               	btfsc	3,2
  6321  0479  2C7B               	goto	u4891
  6322  047A  2C7C               	goto	u4890
  6323  047B                     u4891:
  6324  047B  2C8B               	goto	l3977
  6325  047C                     u4890:
  6326  047C                     l3971:
  6327  047C  0A38               	incf	___flmul@aexp,w
  6328  047D  1D03               	btfss	3,2
  6329  047E  2C80               	goto	u4901
  6330  047F  2C81               	goto	u4900
  6331  0480                     u4901:
  6332  0480  2C89               	goto	l3975
  6333  0481                     u4900:
  6334  0481                     l3973:
  6335  0481  3000               	movlw	0
  6336  0482  00B1               	movwf	___flmul@a+3
  6337  0483  3000               	movlw	0
  6338  0484  00B0               	movwf	___flmul@a+2
  6339  0485  3000               	movlw	0
  6340  0486  00AF               	movwf	___flmul@a+1
  6341  0487  3000               	movlw	0
  6342  0488  00AE               	movwf	___flmul@a
  6343  0489                     l3975:
  6344  0489  17B0               	bsf	___flmul@a+2,7
  6345  048A  2C93               	goto	l3979
  6346  048B                     l3977:
  6347  048B  3000               	movlw	0
  6348  048C  00B1               	movwf	___flmul@a+3
  6349  048D  3000               	movlw	0
  6350  048E  00B0               	movwf	___flmul@a+2
  6351  048F  3000               	movlw	0
  6352  0490  00AF               	movwf	___flmul@a+1
  6353  0491  3000               	movlw	0
  6354  0492  00AE               	movwf	___flmul@a
  6355  0493                     l3979:
  6356  0493  0838               	movf	___flmul@aexp,w
  6357  0494  1903               	btfsc	3,2
  6358  0495  2C97               	goto	u4911
  6359  0496  2C98               	goto	u4910
  6360  0497                     u4911:
  6361  0497  2C9D               	goto	l3983
  6362  0498                     u4910:
  6363  0498                     l3981:
  6364  0498  083D               	movf	___flmul@bexp,w
  6365  0499  1D03               	btfss	3,2
  6366  049A  2C9C               	goto	u4921
  6367  049B  2C9D               	goto	u4920
  6368  049C                     u4921:
  6369  049C  2CA6               	goto	l3987
  6370  049D                     u4920:
  6371  049D                     l3983:
  6372  049D  3000               	movlw	0
  6373  049E  00AD               	movwf	?___flmul+3
  6374  049F  3000               	movlw	0
  6375  04A0  00AC               	movwf	?___flmul+2
  6376  04A1  3000               	movlw	0
  6377  04A2  00AB               	movwf	?___flmul+1
  6378  04A3  3000               	movlw	0
  6379  04A4  00AA               	movwf	?___flmul
  6380  04A5  2F99               	goto	l786
  6381  04A6                     l3987:
  6382  04A6  082A               	movf	___flmul@b,w
  6383  04A7  00B2               	movwf	??___flmul
  6384  04A8  0832               	movf	??___flmul,w
  6385  04A9  00F3               	movwf	__Umul8_16@multiplicand
  6386  04AA  0830               	movf	___flmul@a+2,w
  6387  04AB  160A  118A  2400  120A  118A  	fcall	__Umul8_16
  6388  04B0  0874               	movf	?__Umul8_16+1,w
  6389  04B1  1283               	bcf	3,5	;RP0=0, select bank0
  6390  04B2  1303               	bcf	3,6	;RP1=0, select bank0
  6391  04B3  00C3               	movwf	___flmul@temp+1
  6392  04B4  0873               	movf	?__Umul8_16,w
  6393  04B5  00C2               	movwf	___flmul@temp
  6394  04B6                     l3989:
  6395  04B6  0842               	movf	___flmul@temp,w
  6396  04B7  00B2               	movwf	??___flmul
  6397  04B8  01B3               	clrf	??___flmul+1
  6398  04B9  01B4               	clrf	??___flmul+2
  6399  04BA  01B5               	clrf	??___flmul+3
  6400  04BB  0835               	movf	??___flmul+3,w
  6401  04BC  00BC               	movwf	___flmul@grs+3
  6402  04BD  0834               	movf	??___flmul+2,w
  6403  04BE  00BB               	movwf	___flmul@grs+2
  6404  04BF  0833               	movf	??___flmul+1,w
  6405  04C0  00BA               	movwf	___flmul@grs+1
  6406  04C1  0832               	movf	??___flmul,w
  6407  04C2  00B9               	movwf	___flmul@grs
  6408  04C3                     l3991:
  6409  04C3  0843               	movf	___flmul@temp+1,w
  6410  04C4  00B2               	movwf	??___flmul
  6411  04C5  01B3               	clrf	??___flmul+1
  6412  04C6  01B4               	clrf	??___flmul+2
  6413  04C7  01B5               	clrf	??___flmul+3
  6414  04C8  0835               	movf	??___flmul+3,w
  6415  04C9  00C1               	movwf	___flmul@prod+3
  6416  04CA  0834               	movf	??___flmul+2,w
  6417  04CB  00C0               	movwf	___flmul@prod+2
  6418  04CC  0833               	movf	??___flmul+1,w
  6419  04CD  00BF               	movwf	___flmul@prod+1
  6420  04CE  0832               	movf	??___flmul,w
  6421  04CF  00BE               	movwf	___flmul@prod
  6422  04D0  082B               	movf	___flmul@b+1,w
  6423  04D1  00B2               	movwf	??___flmul
  6424  04D2  0832               	movf	??___flmul,w
  6425  04D3  00F3               	movwf	__Umul8_16@multiplicand
  6426  04D4  082F               	movf	___flmul@a+1,w
  6427  04D5  160A  118A  2400  120A  118A  	fcall	__Umul8_16
  6428  04DA  0874               	movf	?__Umul8_16+1,w
  6429  04DB  1283               	bcf	3,5	;RP0=0, select bank0
  6430  04DC  1303               	bcf	3,6	;RP1=0, select bank0
  6431  04DD  00C3               	movwf	___flmul@temp+1
  6432  04DE  0873               	movf	?__Umul8_16,w
  6433  04DF  00C2               	movwf	___flmul@temp
  6434  04E0                     l3993:
  6435  04E0  0842               	movf	___flmul@temp,w
  6436  04E1  00B2               	movwf	??___flmul
  6437  04E2  01B3               	clrf	??___flmul+1
  6438  04E3  01B4               	clrf	??___flmul+2
  6439  04E4  01B5               	clrf	??___flmul+3
  6440  04E5  0832               	movf	??___flmul,w
  6441  04E6  07B9               	addwf	___flmul@grs,f
  6442  04E7  0833               	movf	??___flmul+1,w
  6443  04E8  1103               	clrz
  6444  04E9  1803               	skipnc
  6445  04EA  3E01               	addlw	1
  6446  04EB  1903               	skipnz
  6447  04EC  2CEE               	goto	u4931
  6448  04ED  07BA               	addwf	___flmul@grs+1,f
  6449  04EE                     u4931:
  6450  04EE  0834               	movf	??___flmul+2,w
  6451  04EF  1103               	clrz
  6452  04F0  1803               	skipnc
  6453  04F1  3E01               	addlw	1
  6454  04F2  1903               	skipnz
  6455  04F3  2CF5               	goto	u4932
  6456  04F4  07BB               	addwf	___flmul@grs+2,f
  6457  04F5                     u4932:
  6458  04F5  0835               	movf	??___flmul+3,w
  6459  04F6  1103               	clrz
  6460  04F7  1803               	skipnc
  6461  04F8  3E01               	addlw	1
  6462  04F9  1903               	skipnz
  6463  04FA  2CFC               	goto	u4933
  6464  04FB  07BC               	addwf	___flmul@grs+3,f
  6465  04FC                     u4933:
  6466  04FC                     l3995:
  6467  04FC  0843               	movf	___flmul@temp+1,w
  6468  04FD  00B2               	movwf	??___flmul
  6469  04FE  01B3               	clrf	??___flmul+1
  6470  04FF  01B4               	clrf	??___flmul+2
  6471  0500  01B5               	clrf	??___flmul+3
  6472  0501  0832               	movf	??___flmul,w
  6473  0502  07BE               	addwf	___flmul@prod,f
  6474  0503  0833               	movf	??___flmul+1,w
  6475  0504  1103               	clrz
  6476  0505  1803               	skipnc
  6477  0506  3E01               	addlw	1
  6478  0507  1903               	skipnz
  6479  0508  2D0A               	goto	u4941
  6480  0509  07BF               	addwf	___flmul@prod+1,f
  6481  050A                     u4941:
  6482  050A  0834               	movf	??___flmul+2,w
  6483  050B  1103               	clrz
  6484  050C  1803               	skipnc
  6485  050D  3E01               	addlw	1
  6486  050E  1903               	skipnz
  6487  050F  2D11               	goto	u4942
  6488  0510  07C0               	addwf	___flmul@prod+2,f
  6489  0511                     u4942:
  6490  0511  0835               	movf	??___flmul+3,w
  6491  0512  1103               	clrz
  6492  0513  1803               	skipnc
  6493  0514  3E01               	addlw	1
  6494  0515  1903               	skipnz
  6495  0516  2D18               	goto	u4943
  6496  0517  07C1               	addwf	___flmul@prod+3,f
  6497  0518                     u4943:
  6498  0518  082C               	movf	___flmul@b+2,w
  6499  0519  00B2               	movwf	??___flmul
  6500  051A  0832               	movf	??___flmul,w
  6501  051B  00F3               	movwf	__Umul8_16@multiplicand
  6502  051C  082E               	movf	___flmul@a,w
  6503  051D  160A  118A  2400  120A  118A  	fcall	__Umul8_16
  6504  0522  0874               	movf	?__Umul8_16+1,w
  6505  0523  1283               	bcf	3,5	;RP0=0, select bank0
  6506  0524  1303               	bcf	3,6	;RP1=0, select bank0
  6507  0525  00C3               	movwf	___flmul@temp+1
  6508  0526  0873               	movf	?__Umul8_16,w
  6509  0527  00C2               	movwf	___flmul@temp
  6510  0528                     l3997:
  6511  0528  0842               	movf	___flmul@temp,w
  6512  0529  00B2               	movwf	??___flmul
  6513  052A  01B3               	clrf	??___flmul+1
  6514  052B  01B4               	clrf	??___flmul+2
  6515  052C  01B5               	clrf	??___flmul+3
  6516  052D  0832               	movf	??___flmul,w
  6517  052E  07B9               	addwf	___flmul@grs,f
  6518  052F  0833               	movf	??___flmul+1,w
  6519  0530  1103               	clrz
  6520  0531  1803               	skipnc
  6521  0532  3E01               	addlw	1
  6522  0533  1903               	skipnz
  6523  0534  2D36               	goto	u4951
  6524  0535  07BA               	addwf	___flmul@grs+1,f
  6525  0536                     u4951:
  6526  0536  0834               	movf	??___flmul+2,w
  6527  0537  1103               	clrz
  6528  0538  1803               	skipnc
  6529  0539  3E01               	addlw	1
  6530  053A  1903               	skipnz
  6531  053B  2D3D               	goto	u4952
  6532  053C  07BB               	addwf	___flmul@grs+2,f
  6533  053D                     u4952:
  6534  053D  0835               	movf	??___flmul+3,w
  6535  053E  1103               	clrz
  6536  053F  1803               	skipnc
  6537  0540  3E01               	addlw	1
  6538  0541  1903               	skipnz
  6539  0542  2D44               	goto	u4953
  6540  0543  07BC               	addwf	___flmul@grs+3,f
  6541  0544                     u4953:
  6542  0544                     l3999:
  6543  0544  0843               	movf	___flmul@temp+1,w
  6544  0545  00B2               	movwf	??___flmul
  6545  0546  01B3               	clrf	??___flmul+1
  6546  0547  01B4               	clrf	??___flmul+2
  6547  0548  01B5               	clrf	??___flmul+3
  6548  0549  0832               	movf	??___flmul,w
  6549  054A  07BE               	addwf	___flmul@prod,f
  6550  054B  0833               	movf	??___flmul+1,w
  6551  054C  1103               	clrz
  6552  054D  1803               	skipnc
  6553  054E  3E01               	addlw	1
  6554  054F  1903               	skipnz
  6555  0550  2D52               	goto	u4961
  6556  0551  07BF               	addwf	___flmul@prod+1,f
  6557  0552                     u4961:
  6558  0552  0834               	movf	??___flmul+2,w
  6559  0553  1103               	clrz
  6560  0554  1803               	skipnc
  6561  0555  3E01               	addlw	1
  6562  0556  1903               	skipnz
  6563  0557  2D59               	goto	u4962
  6564  0558  07C0               	addwf	___flmul@prod+2,f
  6565  0559                     u4962:
  6566  0559  0835               	movf	??___flmul+3,w
  6567  055A  1103               	clrz
  6568  055B  1803               	skipnc
  6569  055C  3E01               	addlw	1
  6570  055D  1903               	skipnz
  6571  055E  2D60               	goto	u4963
  6572  055F  07C1               	addwf	___flmul@prod+3,f
  6573  0560                     u4963:
  6574  0560                     l4001:
  6575  0560  3008               	movlw	8
  6576  0561  00B2               	movwf	??___flmul
  6577  0562                     u4975:
  6578  0562  1003               	clrc
  6579  0563  0DB9               	rlf	___flmul@grs,f
  6580  0564  0DBA               	rlf	___flmul@grs+1,f
  6581  0565  0DBB               	rlf	___flmul@grs+2,f
  6582  0566  0DBC               	rlf	___flmul@grs+3,f
  6583  0567  0BB2               	decfsz	??___flmul,f
  6584  0568  2D62               	goto	u4975
  6585  0569                     l4003:
  6586  0569  082B               	movf	___flmul@b+1,w
  6587  056A  00B2               	movwf	??___flmul
  6588  056B  0832               	movf	??___flmul,w
  6589  056C  00F3               	movwf	__Umul8_16@multiplicand
  6590  056D  082E               	movf	___flmul@a,w
  6591  056E  160A  118A  2400  120A  118A  	fcall	__Umul8_16
  6592  0573  0874               	movf	?__Umul8_16+1,w
  6593  0574  1283               	bcf	3,5	;RP0=0, select bank0
  6594  0575  1303               	bcf	3,6	;RP1=0, select bank0
  6595  0576  00C3               	movwf	___flmul@temp+1
  6596  0577  0873               	movf	?__Umul8_16,w
  6597  0578  00C2               	movwf	___flmul@temp
  6598  0579                     l4005:
  6599  0579  0842               	movf	___flmul@temp,w
  6600  057A  00B2               	movwf	??___flmul
  6601  057B  0843               	movf	___flmul@temp+1,w
  6602  057C  00B3               	movwf	??___flmul+1
  6603  057D  01B4               	clrf	??___flmul+2
  6604  057E  01B5               	clrf	??___flmul+3
  6605  057F  0832               	movf	??___flmul,w
  6606  0580  07B9               	addwf	___flmul@grs,f
  6607  0581  0833               	movf	??___flmul+1,w
  6608  0582  1103               	clrz
  6609  0583  1803               	skipnc
  6610  0584  3E01               	addlw	1
  6611  0585  1903               	skipnz
  6612  0586  2D88               	goto	u4981
  6613  0587  07BA               	addwf	___flmul@grs+1,f
  6614  0588                     u4981:
  6615  0588  0834               	movf	??___flmul+2,w
  6616  0589  1103               	clrz
  6617  058A  1803               	skipnc
  6618  058B  3E01               	addlw	1
  6619  058C  1903               	skipnz
  6620  058D  2D8F               	goto	u4982
  6621  058E  07BB               	addwf	___flmul@grs+2,f
  6622  058F                     u4982:
  6623  058F  0835               	movf	??___flmul+3,w
  6624  0590  1103               	clrz
  6625  0591  1803               	skipnc
  6626  0592  3E01               	addlw	1
  6627  0593  1903               	skipnz
  6628  0594  2D96               	goto	u4983
  6629  0595  07BC               	addwf	___flmul@grs+3,f
  6630  0596                     u4983:
  6631  0596                     l4007:
  6632  0596  082A               	movf	___flmul@b,w
  6633  0597  00B2               	movwf	??___flmul
  6634  0598  0832               	movf	??___flmul,w
  6635  0599  00F3               	movwf	__Umul8_16@multiplicand
  6636  059A  082F               	movf	___flmul@a+1,w
  6637  059B  160A  118A  2400  120A  118A  	fcall	__Umul8_16
  6638  05A0  0874               	movf	?__Umul8_16+1,w
  6639  05A1  1283               	bcf	3,5	;RP0=0, select bank0
  6640  05A2  1303               	bcf	3,6	;RP1=0, select bank0
  6641  05A3  00C3               	movwf	___flmul@temp+1
  6642  05A4  0873               	movf	?__Umul8_16,w
  6643  05A5  00C2               	movwf	___flmul@temp
  6644  05A6                     l4009:
  6645  05A6  0842               	movf	___flmul@temp,w
  6646  05A7  00B2               	movwf	??___flmul
  6647  05A8  0843               	movf	___flmul@temp+1,w
  6648  05A9  00B3               	movwf	??___flmul+1
  6649  05AA  01B4               	clrf	??___flmul+2
  6650  05AB  01B5               	clrf	??___flmul+3
  6651  05AC  0832               	movf	??___flmul,w
  6652  05AD  07B9               	addwf	___flmul@grs,f
  6653  05AE  0833               	movf	??___flmul+1,w
  6654  05AF  1103               	clrz
  6655  05B0  1803               	skipnc
  6656  05B1  3E01               	addlw	1
  6657  05B2  1903               	skipnz
  6658  05B3  2DB5               	goto	u4991
  6659  05B4  07BA               	addwf	___flmul@grs+1,f
  6660  05B5                     u4991:
  6661  05B5  0834               	movf	??___flmul+2,w
  6662  05B6  1103               	clrz
  6663  05B7  1803               	skipnc
  6664  05B8  3E01               	addlw	1
  6665  05B9  1903               	skipnz
  6666  05BA  2DBC               	goto	u4992
  6667  05BB  07BB               	addwf	___flmul@grs+2,f
  6668  05BC                     u4992:
  6669  05BC  0835               	movf	??___flmul+3,w
  6670  05BD  1103               	clrz
  6671  05BE  1803               	skipnc
  6672  05BF  3E01               	addlw	1
  6673  05C0  1903               	skipnz
  6674  05C1  2DC3               	goto	u4993
  6675  05C2  07BC               	addwf	___flmul@grs+3,f
  6676  05C3                     u4993:
  6677  05C3                     l4011:
  6678  05C3  3008               	movlw	8
  6679  05C4  00B2               	movwf	??___flmul
  6680  05C5                     u5005:
  6681  05C5  1003               	clrc
  6682  05C6  0DB9               	rlf	___flmul@grs,f
  6683  05C7  0DBA               	rlf	___flmul@grs+1,f
  6684  05C8  0DBB               	rlf	___flmul@grs+2,f
  6685  05C9  0DBC               	rlf	___flmul@grs+3,f
  6686  05CA  0BB2               	decfsz	??___flmul,f
  6687  05CB  2DC5               	goto	u5005
  6688  05CC  082A               	movf	___flmul@b,w
  6689  05CD  00B2               	movwf	??___flmul
  6690  05CE  0832               	movf	??___flmul,w
  6691  05CF  00F3               	movwf	__Umul8_16@multiplicand
  6692  05D0  082E               	movf	___flmul@a,w
  6693  05D1  160A  118A  2400  120A  118A  	fcall	__Umul8_16
  6694  05D6  0874               	movf	?__Umul8_16+1,w
  6695  05D7  1283               	bcf	3,5	;RP0=0, select bank0
  6696  05D8  1303               	bcf	3,6	;RP1=0, select bank0
  6697  05D9  00C3               	movwf	___flmul@temp+1
  6698  05DA  0873               	movf	?__Umul8_16,w
  6699  05DB  00C2               	movwf	___flmul@temp
  6700  05DC                     l4013:
  6701  05DC  0842               	movf	___flmul@temp,w
  6702  05DD  00B2               	movwf	??___flmul
  6703  05DE  0843               	movf	___flmul@temp+1,w
  6704  05DF  00B3               	movwf	??___flmul+1
  6705  05E0  01B4               	clrf	??___flmul+2
  6706  05E1  01B5               	clrf	??___flmul+3
  6707  05E2  0832               	movf	??___flmul,w
  6708  05E3  07B9               	addwf	___flmul@grs,f
  6709  05E4  0833               	movf	??___flmul+1,w
  6710  05E5  1103               	clrz
  6711  05E6  1803               	skipnc
  6712  05E7  3E01               	addlw	1
  6713  05E8  1903               	skipnz
  6714  05E9  2DEB               	goto	u5011
  6715  05EA  07BA               	addwf	___flmul@grs+1,f
  6716  05EB                     u5011:
  6717  05EB  0834               	movf	??___flmul+2,w
  6718  05EC  1103               	clrz
  6719  05ED  1803               	skipnc
  6720  05EE  3E01               	addlw	1
  6721  05EF  1903               	skipnz
  6722  05F0  2DF2               	goto	u5012
  6723  05F1  07BB               	addwf	___flmul@grs+2,f
  6724  05F2                     u5012:
  6725  05F2  0835               	movf	??___flmul+3,w
  6726  05F3  1103               	clrz
  6727  05F4  1803               	skipnc
  6728  05F5  3E01               	addlw	1
  6729  05F6  1903               	skipnz
  6730  05F7  2DF9               	goto	u5013
  6731  05F8  07BC               	addwf	___flmul@grs+3,f
  6732  05F9                     u5013:
  6733  05F9                     l4015:
  6734  05F9  082B               	movf	___flmul@b+1,w
  6735  05FA  00B2               	movwf	??___flmul
  6736  05FB  0832               	movf	??___flmul,w
  6737  05FC  00F3               	movwf	__Umul8_16@multiplicand
  6738  05FD  0830               	movf	___flmul@a+2,w
  6739  05FE  160A  118A  2400  120A  118A  	fcall	__Umul8_16
  6740  0603  0874               	movf	?__Umul8_16+1,w
  6741  0604  1283               	bcf	3,5	;RP0=0, select bank0
  6742  0605  1303               	bcf	3,6	;RP1=0, select bank0
  6743  0606  00C3               	movwf	___flmul@temp+1
  6744  0607  0873               	movf	?__Umul8_16,w
  6745  0608  00C2               	movwf	___flmul@temp
  6746  0609  0842               	movf	___flmul@temp,w
  6747  060A  00B2               	movwf	??___flmul
  6748  060B  0843               	movf	___flmul@temp+1,w
  6749  060C  00B3               	movwf	??___flmul+1
  6750  060D  01B4               	clrf	??___flmul+2
  6751  060E  01B5               	clrf	??___flmul+3
  6752  060F  0832               	movf	??___flmul,w
  6753  0610  07BE               	addwf	___flmul@prod,f
  6754  0611  0833               	movf	??___flmul+1,w
  6755  0612  1103               	clrz
  6756  0613  1803               	skipnc
  6757  0614  3E01               	addlw	1
  6758  0615  1903               	skipnz
  6759  0616  2E18               	goto	u5021
  6760  0617  07BF               	addwf	___flmul@prod+1,f
  6761  0618                     u5021:
  6762  0618  0834               	movf	??___flmul+2,w
  6763  0619  1103               	clrz
  6764  061A  1803               	skipnc
  6765  061B  3E01               	addlw	1
  6766  061C  1903               	skipnz
  6767  061D  2E1F               	goto	u5022
  6768  061E  07C0               	addwf	___flmul@prod+2,f
  6769  061F                     u5022:
  6770  061F  0835               	movf	??___flmul+3,w
  6771  0620  1103               	clrz
  6772  0621  1803               	skipnc
  6773  0622  3E01               	addlw	1
  6774  0623  1903               	skipnz
  6775  0624  2E26               	goto	u5023
  6776  0625  07C1               	addwf	___flmul@prod+3,f
  6777  0626                     u5023:
  6778  0626                     l4017:
  6779  0626  082C               	movf	___flmul@b+2,w
  6780  0627  00B2               	movwf	??___flmul
  6781  0628  0832               	movf	??___flmul,w
  6782  0629  00F3               	movwf	__Umul8_16@multiplicand
  6783  062A  082F               	movf	___flmul@a+1,w
  6784  062B  160A  118A  2400  120A  118A  	fcall	__Umul8_16
  6785  0630  0874               	movf	?__Umul8_16+1,w
  6786  0631  1283               	bcf	3,5	;RP0=0, select bank0
  6787  0632  1303               	bcf	3,6	;RP1=0, select bank0
  6788  0633  00C3               	movwf	___flmul@temp+1
  6789  0634  0873               	movf	?__Umul8_16,w
  6790  0635  00C2               	movwf	___flmul@temp
  6791  0636                     l4019:
  6792  0636  0842               	movf	___flmul@temp,w
  6793  0637  00B2               	movwf	??___flmul
  6794  0638  0843               	movf	___flmul@temp+1,w
  6795  0639  00B3               	movwf	??___flmul+1
  6796  063A  01B4               	clrf	??___flmul+2
  6797  063B  01B5               	clrf	??___flmul+3
  6798  063C  0832               	movf	??___flmul,w
  6799  063D  07BE               	addwf	___flmul@prod,f
  6800  063E  0833               	movf	??___flmul+1,w
  6801  063F  1103               	clrz
  6802  0640  1803               	skipnc
  6803  0641  3E01               	addlw	1
  6804  0642  1903               	skipnz
  6805  0643  2E45               	goto	u5031
  6806  0644  07BF               	addwf	___flmul@prod+1,f
  6807  0645                     u5031:
  6808  0645  0834               	movf	??___flmul+2,w
  6809  0646  1103               	clrz
  6810  0647  1803               	skipnc
  6811  0648  3E01               	addlw	1
  6812  0649  1903               	skipnz
  6813  064A  2E4C               	goto	u5032
  6814  064B  07C0               	addwf	___flmul@prod+2,f
  6815  064C                     u5032:
  6816  064C  0835               	movf	??___flmul+3,w
  6817  064D  1103               	clrz
  6818  064E  1803               	skipnc
  6819  064F  3E01               	addlw	1
  6820  0650  1903               	skipnz
  6821  0651  2E53               	goto	u5033
  6822  0652  07C1               	addwf	___flmul@prod+3,f
  6823  0653                     u5033:
  6824  0653  082C               	movf	___flmul@b+2,w
  6825  0654  00B2               	movwf	??___flmul
  6826  0655  0832               	movf	??___flmul,w
  6827  0656  00F3               	movwf	__Umul8_16@multiplicand
  6828  0657  0830               	movf	___flmul@a+2,w
  6829  0658  160A  118A  2400  120A  118A  	fcall	__Umul8_16
  6830  065D  0874               	movf	?__Umul8_16+1,w
  6831  065E  1283               	bcf	3,5	;RP0=0, select bank0
  6832  065F  1303               	bcf	3,6	;RP1=0, select bank0
  6833  0660  00C3               	movwf	___flmul@temp+1
  6834  0661  0873               	movf	?__Umul8_16,w
  6835  0662  00C2               	movwf	___flmul@temp
  6836  0663                     l4021:
  6837  0663  0842               	movf	___flmul@temp,w
  6838  0664  00B2               	movwf	??___flmul
  6839  0665  0843               	movf	___flmul@temp+1,w
  6840  0666  00B3               	movwf	??___flmul+1
  6841  0667  01B4               	clrf	??___flmul+2
  6842  0668  01B5               	clrf	??___flmul+3
  6843  0669  3008               	movlw	8
  6844  066A                     u5045:
  6845  066A  1003               	clrc
  6846  066B  0DB2               	rlf	??___flmul,f
  6847  066C  0DB3               	rlf	??___flmul+1,f
  6848  066D  0DB4               	rlf	??___flmul+2,f
  6849  066E  0DB5               	rlf	??___flmul+3,f
  6850  066F                     u5040:
  6851  066F  3EFF               	addlw	-1
  6852  0670  1D03               	skipz
  6853  0671  2E6A               	goto	u5045
  6854  0672  0832               	movf	??___flmul,w
  6855  0673  07BE               	addwf	___flmul@prod,f
  6856  0674  0833               	movf	??___flmul+1,w
  6857  0675  1103               	clrz
  6858  0676  1803               	skipnc
  6859  0677  3E01               	addlw	1
  6860  0678  1903               	skipnz
  6861  0679  2E7B               	goto	u5051
  6862  067A  07BF               	addwf	___flmul@prod+1,f
  6863  067B                     u5051:
  6864  067B  0834               	movf	??___flmul+2,w
  6865  067C  1103               	clrz
  6866  067D  1803               	skipnc
  6867  067E  3E01               	addlw	1
  6868  067F  1903               	skipnz
  6869  0680  2E82               	goto	u5052
  6870  0681  07C0               	addwf	___flmul@prod+2,f
  6871  0682                     u5052:
  6872  0682  0835               	movf	??___flmul+3,w
  6873  0683  1103               	clrz
  6874  0684  1803               	skipnc
  6875  0685  3E01               	addlw	1
  6876  0686  1903               	skipnz
  6877  0687  2E89               	goto	u5053
  6878  0688  07C1               	addwf	___flmul@prod+3,f
  6879  0689                     u5053:
  6880  0689                     l4023:
  6881  0689  0839               	movf	___flmul@grs,w
  6882  068A  00B2               	movwf	??___flmul
  6883  068B  083A               	movf	___flmul@grs+1,w
  6884  068C  00B3               	movwf	??___flmul+1
  6885  068D  083B               	movf	___flmul@grs+2,w
  6886  068E  00B4               	movwf	??___flmul+2
  6887  068F  083C               	movf	___flmul@grs+3,w
  6888  0690  00B5               	movwf	??___flmul+3
  6889  0691  3018               	movlw	24
  6890  0692                     u5065:
  6891  0692  1003               	clrc
  6892  0693  0CB5               	rrf	??___flmul+3,f
  6893  0694  0CB4               	rrf	??___flmul+2,f
  6894  0695  0CB3               	rrf	??___flmul+1,f
  6895  0696  0CB2               	rrf	??___flmul,f
  6896  0697                     u5060:
  6897  0697  3EFF               	addlw	-1
  6898  0698  1D03               	skipz
  6899  0699  2E92               	goto	u5065
  6900  069A  0832               	movf	??___flmul,w
  6901  069B  07BE               	addwf	___flmul@prod,f
  6902  069C  0833               	movf	??___flmul+1,w
  6903  069D  1103               	clrz
  6904  069E  1803               	skipnc
  6905  069F  3E01               	addlw	1
  6906  06A0  1903               	skipnz
  6907  06A1  2EA3               	goto	u5071
  6908  06A2  07BF               	addwf	___flmul@prod+1,f
  6909  06A3                     u5071:
  6910  06A3  0834               	movf	??___flmul+2,w
  6911  06A4  1103               	clrz
  6912  06A5  1803               	skipnc
  6913  06A6  3E01               	addlw	1
  6914  06A7  1903               	skipnz
  6915  06A8  2EAA               	goto	u5072
  6916  06A9  07C0               	addwf	___flmul@prod+2,f
  6917  06AA                     u5072:
  6918  06AA  0835               	movf	??___flmul+3,w
  6919  06AB  1103               	clrz
  6920  06AC  1803               	skipnc
  6921  06AD  3E01               	addlw	1
  6922  06AE  1903               	skipnz
  6923  06AF  2EB1               	goto	u5073
  6924  06B0  07C1               	addwf	___flmul@prod+3,f
  6925  06B1                     u5073:
  6926  06B1                     l4025:
  6927  06B1  3008               	movlw	8
  6928  06B2  00B2               	movwf	??___flmul
  6929  06B3                     u5085:
  6930  06B3  1003               	clrc
  6931  06B4  0DB9               	rlf	___flmul@grs,f
  6932  06B5  0DBA               	rlf	___flmul@grs+1,f
  6933  06B6  0DBB               	rlf	___flmul@grs+2,f
  6934  06B7  0DBC               	rlf	___flmul@grs+3,f
  6935  06B8  0BB2               	decfsz	??___flmul,f
  6936  06B9  2EB3               	goto	u5085
  6937  06BA                     l4027:
  6938  06BA  083D               	movf	___flmul@bexp,w
  6939  06BB  0738               	addwf	___flmul@aexp,w
  6940  06BC  00B2               	movwf	??___flmul
  6941  06BD  01B3               	clrf	??___flmul+1
  6942  06BE  0DB3               	rlf	??___flmul+1,f
  6943  06BF  0832               	movf	??___flmul,w
  6944  06C0  3E82               	addlw	130
  6945  06C1  00C2               	movwf	___flmul@temp
  6946  06C2  0833               	movf	??___flmul+1,w
  6947  06C3  1803               	skipnc
  6948  06C4  3E01               	addlw	1
  6949  06C5  3EFF               	addlw	255
  6950  06C6  00C3               	movwf	___flmul@temp+1
  6951  06C7  2EE5               	goto	l4039
  6952  06C8                     l4029:
  6953  06C8  3001               	movlw	1
  6954  06C9  00B2               	movwf	??___flmul
  6955  06CA                     u5095:
  6956  06CA  1003               	clrc
  6957  06CB  0DBE               	rlf	___flmul@prod,f
  6958  06CC  0DBF               	rlf	___flmul@prod+1,f
  6959  06CD  0DC0               	rlf	___flmul@prod+2,f
  6960  06CE  0DC1               	rlf	___flmul@prod+3,f
  6961  06CF  0BB2               	decfsz	??___flmul,f
  6962  06D0  2ECA               	goto	u5095
  6963  06D1                     l4031:
  6964  06D1  1FBC               	btfss	___flmul@grs+3,7
  6965  06D2  2ED4               	goto	u5101
  6966  06D3  2ED5               	goto	u5100
  6967  06D4                     u5101:
  6968  06D4  2ED6               	goto	l4035
  6969  06D5                     u5100:
  6970  06D5                     l4033:
  6971  06D5  143E               	bsf	___flmul@prod,0
  6972  06D6                     l4035:
  6973  06D6  3001               	movlw	1
  6974  06D7  00B2               	movwf	??___flmul
  6975  06D8                     u5115:
  6976  06D8  1003               	clrc
  6977  06D9  0DB9               	rlf	___flmul@grs,f
  6978  06DA  0DBA               	rlf	___flmul@grs+1,f
  6979  06DB  0DBB               	rlf	___flmul@grs+2,f
  6980  06DC  0DBC               	rlf	___flmul@grs+3,f
  6981  06DD  0BB2               	decfsz	??___flmul,f
  6982  06DE  2ED8               	goto	u5115
  6983  06DF                     l4037:
  6984  06DF  30FF               	movlw	255
  6985  06E0  07C2               	addwf	___flmul@temp,f
  6986  06E1  1803               	skipnc
  6987  06E2  0AC3               	incf	___flmul@temp+1,f
  6988  06E3  30FF               	movlw	255
  6989  06E4  07C3               	addwf	___flmul@temp+1,f
  6990  06E5                     l4039:
  6991  06E5  1FC0               	btfss	___flmul@prod+2,7
  6992  06E6  2EE8               	goto	u5121
  6993  06E7  2EE9               	goto	u5120
  6994  06E8                     u5121:
  6995  06E8  2EC8               	goto	l4029
  6996  06E9                     u5120:
  6997  06E9                     l4041:
  6998  06E9  01B8               	clrf	___flmul@aexp
  6999  06EA                     l4043:
  7000  06EA  1FBC               	btfss	___flmul@grs+3,7
  7001  06EB  2EED               	goto	u5131
  7002  06EC  2EEE               	goto	u5130
  7003  06ED                     u5131:
  7004  06ED  2F0A               	goto	l4051
  7005  06EE                     u5130:
  7006  06EE                     l4045:
  7007  06EE  30FF               	movlw	255
  7008  06EF  0539               	andwf	___flmul@grs,w
  7009  06F0  00B2               	movwf	??___flmul
  7010  06F1  30FF               	movlw	255
  7011  06F2  053A               	andwf	___flmul@grs+1,w
  7012  06F3  00B3               	movwf	??___flmul+1
  7013  06F4  30FF               	movlw	255
  7014  06F5  053B               	andwf	___flmul@grs+2,w
  7015  06F6  00B4               	movwf	??___flmul+2
  7016  06F7  307F               	movlw	127
  7017  06F8  053C               	andwf	___flmul@grs+3,w
  7018  06F9  00B5               	movwf	??___flmul+3
  7019  06FA  0835               	movf	??___flmul+3,w
  7020  06FB  0434               	iorwf	??___flmul+2,w
  7021  06FC  0433               	iorwf	??___flmul+1,w
  7022  06FD  0432               	iorwf	??___flmul,w
  7023  06FE  1903               	skipnz
  7024  06FF  2F01               	goto	u5141
  7025  0700  2F02               	goto	u5140
  7026  0701                     u5141:
  7027  0701  2F05               	goto	l792
  7028  0702                     u5140:
  7029  0702                     l4047:
  7030  0702  01B8               	clrf	___flmul@aexp
  7031  0703  0AB8               	incf	___flmul@aexp,f
  7032  0704  2F0A               	goto	l4051
  7033  0705                     l792:
  7034  0705  1C3E               	btfss	___flmul@prod,0
  7035  0706  2F08               	goto	u5151
  7036  0707  2F09               	goto	u5150
  7037  0708                     u5151:
  7038  0708  2F0A               	goto	l4051
  7039  0709                     u5150:
  7040  0709  2F02               	goto	l4047
  7041  070A                     l4051:
  7042  070A  0838               	movf	___flmul@aexp,w
  7043  070B  1903               	btfsc	3,2
  7044  070C  2F0E               	goto	u5161
  7045  070D  2F0F               	goto	u5160
  7046  070E                     u5161:
  7047  070E  2F40               	goto	l4061
  7048  070F                     u5160:
  7049  070F                     l4053:
  7050  070F  3001               	movlw	1
  7051  0710  07BE               	addwf	___flmul@prod,f
  7052  0711  3000               	movlw	0
  7053  0712  1803               	skipnc
  7054  0713  3001               	movlw	1
  7055  0714  07BF               	addwf	___flmul@prod+1,f
  7056  0715  3000               	movlw	0
  7057  0716  1803               	skipnc
  7058  0717  3001               	movlw	1
  7059  0718  07C0               	addwf	___flmul@prod+2,f
  7060  0719  3000               	movlw	0
  7061  071A  1803               	skipnc
  7062  071B  3001               	movlw	1
  7063  071C  07C1               	addwf	___flmul@prod+3,f
  7064  071D                     l4055:
  7065  071D  1C41               	btfss	___flmul@prod+3,0
  7066  071E  2F20               	goto	u5171
  7067  071F  2F21               	goto	u5170
  7068  0720                     u5171:
  7069  0720  2F40               	goto	l4061
  7070  0721                     u5170:
  7071  0721                     l4057:
  7072  0721  083E               	movf	___flmul@prod,w
  7073  0722  00B2               	movwf	??___flmul
  7074  0723  083F               	movf	___flmul@prod+1,w
  7075  0724  00B3               	movwf	??___flmul+1
  7076  0725  0840               	movf	___flmul@prod+2,w
  7077  0726  00B4               	movwf	??___flmul+2
  7078  0727  0841               	movf	___flmul@prod+3,w
  7079  0728  00B5               	movwf	??___flmul+3
  7080  0729  3001               	movlw	1
  7081  072A  00B6               	movwf	??___flmul+4
  7082  072B                     u5185:
  7083  072B  0D35               	rlf	??___flmul+3,w
  7084  072C  0CB5               	rrf	??___flmul+3,f
  7085  072D  0CB4               	rrf	??___flmul+2,f
  7086  072E  0CB3               	rrf	??___flmul+1,f
  7087  072F  0CB2               	rrf	??___flmul,f
  7088  0730                     u5180:
  7089  0730  0BB6               	decfsz	??___flmul+4,f
  7090  0731  2F2B               	goto	u5185
  7091  0732  0835               	movf	??___flmul+3,w
  7092  0733  00C1               	movwf	___flmul@prod+3
  7093  0734  0834               	movf	??___flmul+2,w
  7094  0735  00C0               	movwf	___flmul@prod+2
  7095  0736  0833               	movf	??___flmul+1,w
  7096  0737  00BF               	movwf	___flmul@prod+1
  7097  0738  0832               	movf	??___flmul,w
  7098  0739  00BE               	movwf	___flmul@prod
  7099  073A                     l4059:
  7100  073A  3001               	movlw	1
  7101  073B  07C2               	addwf	___flmul@temp,f
  7102  073C  1803               	skipnc
  7103  073D  0AC3               	incf	___flmul@temp+1,f
  7104  073E  3000               	movlw	0
  7105  073F  07C3               	addwf	___flmul@temp+1,f
  7106  0740                     l4061:
  7107  0740  0843               	movf	___flmul@temp+1,w
  7108  0741  3A80               	xorlw	128
  7109  0742  00FF               	movwf	btemp+1
  7110  0743  3080               	movlw	128
  7111  0744  027F               	subwf	btemp+1,w
  7112  0745  1D03               	skipz
  7113  0746  2F49               	goto	u5195
  7114  0747  30FF               	movlw	255
  7115  0748  0242               	subwf	___flmul@temp,w
  7116  0749                     u5195:
  7117  0749  1C03               	skipc
  7118  074A  2F4C               	goto	u5191
  7119  074B  2F4D               	goto	u5190
  7120  074C                     u5191:
  7121  074C  2F58               	goto	l4065
  7122  074D                     u5190:
  7123  074D                     l4063:
  7124  074D  307F               	movlw	127
  7125  074E  1283               	bcf	3,5	;RP0=0, select bank0
  7126  074F  1303               	bcf	3,6	;RP1=0, select bank0
  7127  0750  00C1               	movwf	___flmul@prod+3
  7128  0751  3080               	movlw	128
  7129  0752  00C0               	movwf	___flmul@prod+2
  7130  0753  3000               	movlw	0
  7131  0754  00BF               	movwf	___flmul@prod+1
  7132  0755  3000               	movlw	0
  7133  0756  00BE               	movwf	___flmul@prod
  7134  0757  2F8D               	goto	l798
  7135  0758                     l4065:
  7136  0758  1283               	bcf	3,5	;RP0=0, select bank0
  7137  0759  1303               	bcf	3,6	;RP1=0, select bank0
  7138  075A  0843               	movf	___flmul@temp+1,w
  7139  075B  3A80               	xorlw	128
  7140  075C  00FF               	movwf	btemp+1
  7141  075D  3080               	movlw	128
  7142  075E  027F               	subwf	btemp+1,w
  7143  075F  1D03               	skipz
  7144  0760  2F63               	goto	u5205
  7145  0761  3001               	movlw	1
  7146  0762  0242               	subwf	___flmul@temp,w
  7147  0763                     u5205:
  7148  0763  1803               	skipnc
  7149  0764  2F66               	goto	u5201
  7150  0765  2F67               	goto	u5200
  7151  0766                     u5201:
  7152  0766  2F73               	goto	l4071
  7153  0767                     u5200:
  7154  0767                     l4067:
  7155  0767  3000               	movlw	0
  7156  0768  1283               	bcf	3,5	;RP0=0, select bank0
  7157  0769  1303               	bcf	3,6	;RP1=0, select bank0
  7158  076A  00C1               	movwf	___flmul@prod+3
  7159  076B  3000               	movlw	0
  7160  076C  00C0               	movwf	___flmul@prod+2
  7161  076D  3000               	movlw	0
  7162  076E  00BF               	movwf	___flmul@prod+1
  7163  076F  3000               	movlw	0
  7164  0770  00BE               	movwf	___flmul@prod
  7165  0771                     l4069:
  7166  0771  01B7               	clrf	___flmul@sign
  7167  0772  2F8D               	goto	l798
  7168  0773                     l4071:
  7169  0773  1283               	bcf	3,5	;RP0=0, select bank0
  7170  0774  1303               	bcf	3,6	;RP1=0, select bank0
  7171  0775  0842               	movf	___flmul@temp,w
  7172  0776  00B2               	movwf	??___flmul
  7173  0777  0832               	movf	??___flmul,w
  7174  0778  00BD               	movwf	___flmul@bexp
  7175  0779  30FF               	movlw	255
  7176  077A  05BE               	andwf	___flmul@prod,f
  7177  077B  30FF               	movlw	255
  7178  077C  05BF               	andwf	___flmul@prod+1,f
  7179  077D  307F               	movlw	127
  7180  077E  05C0               	andwf	___flmul@prod+2,f
  7181  077F  3000               	movlw	0
  7182  0780  05C1               	andwf	___flmul@prod+3,f
  7183  0781                     l4073:
  7184  0781  1C3D               	btfss	___flmul@bexp,0
  7185  0782  2F84               	goto	u5211
  7186  0783  2F85               	goto	u5210
  7187  0784                     u5211:
  7188  0784  2F86               	goto	l4077
  7189  0785                     u5210:
  7190  0785                     l4075:
  7191  0785  17C0               	bsf	___flmul@prod+2,7
  7192  0786                     l4077:
  7193  0786  083D               	movf	___flmul@bexp,w
  7194  0787  00B2               	movwf	??___flmul
  7195  0788  1003               	clrc
  7196  0789  0C32               	rrf	??___flmul,w
  7197  078A  00B3               	movwf	??___flmul+1
  7198  078B  0833               	movf	??___flmul+1,w
  7199  078C  00C1               	movwf	___flmul@prod+3
  7200  078D                     l798:
  7201  078D  0837               	movf	___flmul@sign,w
  7202  078E  00B2               	movwf	??___flmul
  7203  078F  0832               	movf	??___flmul,w
  7204  0790  04C1               	iorwf	___flmul@prod+3,f
  7205  0791                     l4079:
  7206  0791  0841               	movf	___flmul@prod+3,w
  7207  0792  00AD               	movwf	?___flmul+3
  7208  0793  0840               	movf	___flmul@prod+2,w
  7209  0794  00AC               	movwf	?___flmul+2
  7210  0795  083F               	movf	___flmul@prod+1,w
  7211  0796  00AB               	movwf	?___flmul+1
  7212  0797  083E               	movf	___flmul@prod,w
  7213  0798  00AA               	movwf	?___flmul
  7214  0799                     l786:
  7215  0799  0008               	return
  7216  079A                     __end_of___flmul:
  7217                           
  7218                           	psect	text13
  7219  1400                     __ptext13:	
  7220 ;; *************** function __Umul8_16 *****************
  7221 ;; Defined at:
  7222 ;;		line 4 in file "C:\Program Files\Microchip\xc8\v2.32\pic\sources\c90\common\Umul8_16.c"
  7223 ;; Parameters:    Size  Location     Type
  7224 ;;  multiplier      1    wreg     unsigned char 
  7225 ;;  multiplicand    1    3[COMMON] unsigned char 
  7226 ;; Auto vars:     Size  Location     Type
  7227 ;;  multiplier      1    4[BANK0 ] unsigned char 
  7228 ;;  word_mpld       2    2[BANK0 ] unsigned int 
  7229 ;;  product         2    0[BANK0 ] unsigned int 
  7230 ;; Return value:  Size  Location     Type
  7231 ;;                  2    3[COMMON] unsigned int 
  7232 ;; Registers used:
  7233 ;;		wreg, status,2, status,0
  7234 ;; Tracked objects:
  7235 ;;		On entry : 0/0
  7236 ;;		On exit  : 0/0
  7237 ;;		Unchanged: 0/0
  7238 ;; Data sizes:     COMMON   BANK0   BANK1   BANK3   BANK2
  7239 ;;      Params:         2       0       0       0       0
  7240 ;;      Locals:         0       5       0       0       0
  7241 ;;      Temps:          2       0       0       0       0
  7242 ;;      Totals:         4       5       0       0       0
  7243 ;;Total ram usage:        9 bytes
  7244 ;; Hardware stack levels used: 1
  7245 ;; Hardware stack levels required when called: 1
  7246 ;; This function calls:
  7247 ;;		Nothing
  7248 ;; This function is called by:
  7249 ;;		___flmul
  7250 ;; This function uses a non-reentrant model
  7251 ;;
  7252                           
  7253                           
  7254                           ;psect for function __Umul8_16
  7255  1400                     __Umul8_16:
  7256                           
  7257                           ;incstack = 0
  7258                           ; Regs used in __Umul8_16: [wreg+status,2+status,0]
  7259                           ;__Umul8_16@multiplier stored from wreg
  7260  1400  1283               	bcf	3,5	;RP0=0, select bank0
  7261  1401  1303               	bcf	3,6	;RP1=0, select bank0
  7262  1402  00A4               	movwf	__Umul8_16@multiplier
  7263  1403                     l3727:
  7264  1403  01A0               	clrf	__Umul8_16@product
  7265  1404  01A1               	clrf	__Umul8_16@product+1
  7266  1405                     l3729:
  7267  1405  0873               	movf	__Umul8_16@multiplicand,w
  7268  1406  00F5               	movwf	??__Umul8_16
  7269  1407  01F6               	clrf	??__Umul8_16+1
  7270  1408  0875               	movf	??__Umul8_16,w
  7271  1409  00A2               	movwf	__Umul8_16@word_mpld
  7272  140A  0876               	movf	??__Umul8_16+1,w
  7273  140B  00A3               	movwf	__Umul8_16@word_mpld+1
  7274  140C                     l3731:
  7275  140C  1C24               	btfss	__Umul8_16@multiplier,0
  7276  140D  2C0F               	goto	u4401
  7277  140E  2C10               	goto	u4400
  7278  140F                     u4401:
  7279  140F  2C16               	goto	l805
  7280  1410                     u4400:
  7281  1410                     l3733:
  7282  1410  0822               	movf	__Umul8_16@word_mpld,w
  7283  1411  07A0               	addwf	__Umul8_16@product,f
  7284  1412  1803               	skipnc
  7285  1413  0AA1               	incf	__Umul8_16@product+1,f
  7286  1414  0823               	movf	__Umul8_16@word_mpld+1,w
  7287  1415  07A1               	addwf	__Umul8_16@product+1,f
  7288  1416                     l805:
  7289  1416  3001               	movlw	1
  7290  1417                     u4415:
  7291  1417  1003               	clrc
  7292  1418  0DA2               	rlf	__Umul8_16@word_mpld,f
  7293  1419  0DA3               	rlf	__Umul8_16@word_mpld+1,f
  7294  141A  3EFF               	addlw	-1
  7295  141B  1D03               	skipz
  7296  141C  2C17               	goto	u4415
  7297  141D  1003               	clrc
  7298  141E  0CA4               	rrf	__Umul8_16@multiplier,f
  7299  141F                     l3735:
  7300  141F  0824               	movf	__Umul8_16@multiplier,w
  7301  1420  1D03               	btfss	3,2
  7302  1421  2C23               	goto	u4421
  7303  1422  2C24               	goto	u4420
  7304  1423                     u4421:
  7305  1423  2C0C               	goto	l3731
  7306  1424                     u4420:
  7307  1424                     l3737:
  7308  1424  0821               	movf	__Umul8_16@product+1,w
  7309  1425  00F4               	movwf	?__Umul8_16+1
  7310  1426  0820               	movf	__Umul8_16@product,w
  7311  1427  00F3               	movwf	?__Umul8_16
  7312  1428                     l807:
  7313  1428  0008               	return
  7314  1429                     __end_of__Umul8_16:
  7315                           
  7316                           	psect	text14
  7317  16A0                     __ptext14:	
  7318 ;; *************** function ___flge *****************
  7319 ;; Defined at:
  7320 ;;		line 4 in file "C:\Program Files\Microchip\xc8\v2.32\pic\sources\c90\common\flge.c"
  7321 ;; Parameters:    Size  Location     Type
  7322 ;;  ff1             4   44[BANK0 ] unsigned int 
  7323 ;;  ff2             4   48[BANK0 ] unsigned int 
  7324 ;; Auto vars:     Size  Location     Type
  7325 ;;		None
  7326 ;; Return value:  Size  Location     Type
  7327 ;;		None               void
  7328 ;; Registers used:
  7329 ;;		wreg, status,2, status,0
  7330 ;; Tracked objects:
  7331 ;;		On entry : 0/0
  7332 ;;		On exit  : 0/0
  7333 ;;		Unchanged: 0/0
  7334 ;; Data sizes:     COMMON   BANK0   BANK1   BANK3   BANK2
  7335 ;;      Params:         0       8       0       0       0
  7336 ;;      Locals:         0       0       0       0       0
  7337 ;;      Temps:          0       4       0       0       0
  7338 ;;      Totals:         0      12       0       0       0
  7339 ;;Total ram usage:       12 bytes
  7340 ;; Hardware stack levels used: 1
  7341 ;; Hardware stack levels required when called: 1
  7342 ;; This function calls:
  7343 ;;		Nothing
  7344 ;; This function is called by:
  7345 ;;		_run_program
  7346 ;; This function uses a non-reentrant model
  7347 ;;
  7348                           
  7349                           
  7350                           ;psect for function ___flge
  7351  16A0                     ___flge:
  7352  16A0                     l3881:	
  7353                           ;incstack = 0
  7354                           ; Regs used in ___flge: [wreg+status,2+status,0]
  7355                           
  7356  16A0  3000               	movlw	0
  7357  16A1  1283               	bcf	3,5	;RP0=0, select bank0
  7358  16A2  1303               	bcf	3,6	;RP1=0, select bank0
  7359  16A3  054C               	andwf	___flge@ff1,w
  7360  16A4  00D4               	movwf	??___flge
  7361  16A5  3000               	movlw	0
  7362  16A6  054D               	andwf	___flge@ff1+1,w
  7363  16A7  00D5               	movwf	??___flge+1
  7364  16A8  3080               	movlw	128
  7365  16A9  054E               	andwf	___flge@ff1+2,w
  7366  16AA  00D6               	movwf	??___flge+2
  7367  16AB  307F               	movlw	127
  7368  16AC  054F               	andwf	___flge@ff1+3,w
  7369  16AD  00D7               	movwf	??___flge+3
  7370  16AE  0857               	movf	??___flge+3,w
  7371  16AF  0456               	iorwf	??___flge+2,w
  7372  16B0  0455               	iorwf	??___flge+1,w
  7373  16B1  0454               	iorwf	??___flge,w
  7374  16B2  1D03               	skipz
  7375  16B3  2EB5               	goto	u4681
  7376  16B4  2EB6               	goto	u4680
  7377  16B5                     u4681:
  7378  16B5  2EBE               	goto	l571
  7379  16B6                     u4680:
  7380  16B6                     l3883:
  7381  16B6  3000               	movlw	0
  7382  16B7  00CF               	movwf	___flge@ff1+3
  7383  16B8  3000               	movlw	0
  7384  16B9  00CE               	movwf	___flge@ff1+2
  7385  16BA  3000               	movlw	0
  7386  16BB  00CD               	movwf	___flge@ff1+1
  7387  16BC  3000               	movlw	0
  7388  16BD  00CC               	movwf	___flge@ff1
  7389  16BE                     l571:
  7390  16BE  3000               	movlw	0
  7391  16BF  0550               	andwf	___flge@ff2,w
  7392  16C0  00D4               	movwf	??___flge
  7393  16C1  3000               	movlw	0
  7394  16C2  0551               	andwf	___flge@ff2+1,w
  7395  16C3  00D5               	movwf	??___flge+1
  7396  16C4  3080               	movlw	128
  7397  16C5  0552               	andwf	___flge@ff2+2,w
  7398  16C6  00D6               	movwf	??___flge+2
  7399  16C7  307F               	movlw	127
  7400  16C8  0553               	andwf	___flge@ff2+3,w
  7401  16C9  00D7               	movwf	??___flge+3
  7402  16CA  0857               	movf	??___flge+3,w
  7403  16CB  0456               	iorwf	??___flge+2,w
  7404  16CC  0455               	iorwf	??___flge+1,w
  7405  16CD  0454               	iorwf	??___flge,w
  7406  16CE  1D03               	skipz
  7407  16CF  2ED1               	goto	u4691
  7408  16D0  2ED2               	goto	u4690
  7409  16D1                     u4691:
  7410  16D1  2EDA               	goto	l3887
  7411  16D2                     u4690:
  7412  16D2                     l3885:
  7413  16D2  3000               	movlw	0
  7414  16D3  00D3               	movwf	___flge@ff2+3
  7415  16D4  3000               	movlw	0
  7416  16D5  00D2               	movwf	___flge@ff2+2
  7417  16D6  3000               	movlw	0
  7418  16D7  00D1               	movwf	___flge@ff2+1
  7419  16D8  3000               	movlw	0
  7420  16D9  00D0               	movwf	___flge@ff2
  7421  16DA                     l3887:
  7422  16DA  1FCF               	btfss	___flge@ff1+3,7
  7423  16DB  2EDD               	goto	u4701
  7424  16DC  2EDE               	goto	u4700
  7425  16DD                     u4701:
  7426  16DD  2F02               	goto	l3891
  7427  16DE                     u4700:
  7428  16DE                     l3889:
  7429  16DE  3000               	movlw	0
  7430  16DF  00D4               	movwf	??___flge
  7431  16E0  3000               	movlw	0
  7432  16E1  00D5               	movwf	??___flge+1
  7433  16E2  3000               	movlw	0
  7434  16E3  00D6               	movwf	??___flge+2
  7435  16E4  3080               	movlw	128
  7436  16E5  00D7               	movwf	??___flge+3
  7437  16E6  084C               	movf	___flge@ff1,w
  7438  16E7  02D4               	subwf	??___flge,f
  7439  16E8  084D               	movf	___flge@ff1+1,w
  7440  16E9  1C03               	skipc
  7441  16EA  0F4D               	incfsz	___flge@ff1+1,w
  7442  16EB  2EED               	goto	u4711
  7443  16EC  2EEE               	goto	u4712
  7444  16ED                     u4711:
  7445  16ED  02D5               	subwf	??___flge+1,f
  7446  16EE                     u4712:
  7447  16EE  084E               	movf	___flge@ff1+2,w
  7448  16EF  1C03               	skipc
  7449  16F0  0F4E               	incfsz	___flge@ff1+2,w
  7450  16F1  2EF3               	goto	u4713
  7451  16F2  2EF4               	goto	u4714
  7452  16F3                     u4713:
  7453  16F3  02D6               	subwf	??___flge+2,f
  7454  16F4                     u4714:
  7455  16F4  084F               	movf	___flge@ff1+3,w
  7456  16F5  1C03               	skipc
  7457  16F6  0F4F               	incfsz	___flge@ff1+3,w
  7458  16F7  2EF9               	goto	u4715
  7459  16F8  2EFA               	goto	u4716
  7460  16F9                     u4715:
  7461  16F9  02D7               	subwf	??___flge+3,f
  7462  16FA                     u4716:
  7463  16FA  0857               	movf	??___flge+3,w
  7464  16FB  00CF               	movwf	___flge@ff1+3
  7465  16FC  0856               	movf	??___flge+2,w
  7466  16FD  00CE               	movwf	___flge@ff1+2
  7467  16FE  0855               	movf	??___flge+1,w
  7468  16FF  00CD               	movwf	___flge@ff1+1
  7469  1700  0854               	movf	??___flge,w
  7470  1701  00CC               	movwf	___flge@ff1
  7471  1702                     l3891:
  7472  1702  1FD3               	btfss	___flge@ff2+3,7
  7473  1703  2F05               	goto	u4721
  7474  1704  2F06               	goto	u4720
  7475  1705                     u4721:
  7476  1705  2F2A               	goto	l574
  7477  1706                     u4720:
  7478  1706                     l3893:
  7479  1706  3000               	movlw	0
  7480  1707  00D4               	movwf	??___flge
  7481  1708  3000               	movlw	0
  7482  1709  00D5               	movwf	??___flge+1
  7483  170A  3000               	movlw	0
  7484  170B  00D6               	movwf	??___flge+2
  7485  170C  3080               	movlw	128
  7486  170D  00D7               	movwf	??___flge+3
  7487  170E  0850               	movf	___flge@ff2,w
  7488  170F  02D4               	subwf	??___flge,f
  7489  1710  0851               	movf	___flge@ff2+1,w
  7490  1711  1C03               	skipc
  7491  1712  0F51               	incfsz	___flge@ff2+1,w
  7492  1713  2F15               	goto	u4731
  7493  1714  2F16               	goto	u4732
  7494  1715                     u4731:
  7495  1715  02D5               	subwf	??___flge+1,f
  7496  1716                     u4732:
  7497  1716  0852               	movf	___flge@ff2+2,w
  7498  1717  1C03               	skipc
  7499  1718  0F52               	incfsz	___flge@ff2+2,w
  7500  1719  2F1B               	goto	u4733
  7501  171A  2F1C               	goto	u4734
  7502  171B                     u4733:
  7503  171B  02D6               	subwf	??___flge+2,f
  7504  171C                     u4734:
  7505  171C  0853               	movf	___flge@ff2+3,w
  7506  171D  1C03               	skipc
  7507  171E  0F53               	incfsz	___flge@ff2+3,w
  7508  171F  2F21               	goto	u4735
  7509  1720  2F22               	goto	u4736
  7510  1721                     u4735:
  7511  1721  02D7               	subwf	??___flge+3,f
  7512  1722                     u4736:
  7513  1722  0857               	movf	??___flge+3,w
  7514  1723  00D3               	movwf	___flge@ff2+3
  7515  1724  0856               	movf	??___flge+2,w
  7516  1725  00D2               	movwf	___flge@ff2+2
  7517  1726  0855               	movf	??___flge+1,w
  7518  1727  00D1               	movwf	___flge@ff2+1
  7519  1728  0854               	movf	??___flge,w
  7520  1729  00D0               	movwf	___flge@ff2
  7521  172A                     l574:
  7522  172A  3080               	movlw	128
  7523  172B  06CF               	xorwf	___flge@ff1+3,f
  7524  172C  3080               	movlw	128
  7525  172D  06D3               	xorwf	___flge@ff2+3,f
  7526  172E  0853               	movf	___flge@ff2+3,w
  7527  172F  024F               	subwf	___flge@ff1+3,w
  7528  1730  1D03               	skipz
  7529  1731  2F3C               	goto	u4745
  7530  1732  0852               	movf	___flge@ff2+2,w
  7531  1733  024E               	subwf	___flge@ff1+2,w
  7532  1734  1D03               	skipz
  7533  1735  2F3C               	goto	u4745
  7534  1736  0851               	movf	___flge@ff2+1,w
  7535  1737  024D               	subwf	___flge@ff1+1,w
  7536  1738  1D03               	skipz
  7537  1739  2F3C               	goto	u4745
  7538  173A  0850               	movf	___flge@ff2,w
  7539  173B  024C               	subwf	___flge@ff1,w
  7540  173C                     u4745:
  7541  173C  1803               	skipnc
  7542  173D  2F3F               	goto	u4741
  7543  173E  2F40               	goto	u4740
  7544  173F                     u4741:
  7545  173F  2F42               	goto	l3897
  7546  1740                     u4740:
  7547  1740                     l3895:
  7548  1740  1003               	clrc
  7549  1741  2F43               	goto	l575
  7550  1742                     l3897:
  7551  1742  1403               	setc
  7552  1743                     l575:
  7553  1743  0008               	return
  7554  1744                     __end_of___flge:
  7555                           
  7556                           	psect	text15
  7557  1515                     __ptext15:	
  7558 ;; *************** function ___awmod *****************
  7559 ;; Defined at:
  7560 ;;		line 5 in file "C:\Program Files\Microchip\xc8\v2.32\pic\sources\c90\common\awmod.c"
  7561 ;; Parameters:    Size  Location     Type
  7562 ;;  divisor         2    3[COMMON] int 
  7563 ;;  dividend        2    5[COMMON] int 
  7564 ;; Auto vars:     Size  Location     Type
  7565 ;;  sign            1    1[BANK0 ] unsigned char 
  7566 ;;  counter         1    0[BANK0 ] unsigned char 
  7567 ;; Return value:  Size  Location     Type
  7568 ;;                  2    3[COMMON] int 
  7569 ;; Registers used:
  7570 ;;		wreg, status,2, status,0
  7571 ;; Tracked objects:
  7572 ;;		On entry : 0/0
  7573 ;;		On exit  : 0/0
  7574 ;;		Unchanged: 0/0
  7575 ;; Data sizes:     COMMON   BANK0   BANK1   BANK3   BANK2
  7576 ;;      Params:         4       0       0       0       0
  7577 ;;      Locals:         0       2       0       0       0
  7578 ;;      Temps:          1       0       0       0       0
  7579 ;;      Totals:         5       2       0       0       0
  7580 ;;Total ram usage:        7 bytes
  7581 ;; Hardware stack levels used: 1
  7582 ;; Hardware stack levels required when called: 1
  7583 ;; This function calls:
  7584 ;;		Nothing
  7585 ;; This function is called by:
  7586 ;;		_run_program
  7587 ;; This function uses a non-reentrant model
  7588 ;;
  7589                           
  7590                           
  7591                           ;psect for function ___awmod
  7592  1515                     ___awmod:
  7593  1515                     l3843:	
  7594                           ;incstack = 0
  7595                           ; Regs used in ___awmod: [wreg+status,2+status,0]
  7596                           
  7597  1515  1283               	bcf	3,5	;RP0=0, select bank0
  7598  1516  1303               	bcf	3,6	;RP1=0, select bank0
  7599  1517  01A1               	clrf	___awmod@sign
  7600  1518                     l3845:
  7601  1518  1FF6               	btfss	___awmod@dividend+1,7
  7602  1519  2D1B               	goto	u4591
  7603  151A  2D1C               	goto	u4590
  7604  151B                     u4591:
  7605  151B  2D23               	goto	l3851
  7606  151C                     u4590:
  7607  151C                     l3847:
  7608  151C  09F5               	comf	___awmod@dividend,f
  7609  151D  09F6               	comf	___awmod@dividend+1,f
  7610  151E  0AF5               	incf	___awmod@dividend,f
  7611  151F  1903               	skipnz
  7612  1520  0AF6               	incf	___awmod@dividend+1,f
  7613  1521                     l3849:
  7614  1521  01A1               	clrf	___awmod@sign
  7615  1522  0AA1               	incf	___awmod@sign,f
  7616  1523                     l3851:
  7617  1523  1FF4               	btfss	___awmod@divisor+1,7
  7618  1524  2D26               	goto	u4601
  7619  1525  2D27               	goto	u4600
  7620  1526                     u4601:
  7621  1526  2D2C               	goto	l3855
  7622  1527                     u4600:
  7623  1527                     l3853:
  7624  1527  09F3               	comf	___awmod@divisor,f
  7625  1528  09F4               	comf	___awmod@divisor+1,f
  7626  1529  0AF3               	incf	___awmod@divisor,f
  7627  152A  1903               	skipnz
  7628  152B  0AF4               	incf	___awmod@divisor+1,f
  7629  152C                     l3855:
  7630  152C  0873               	movf	___awmod@divisor,w
  7631  152D  0474               	iorwf	___awmod@divisor+1,w
  7632  152E  1903               	btfsc	3,2
  7633  152F  2D31               	goto	u4611
  7634  1530  2D32               	goto	u4610
  7635  1531                     u4611:
  7636  1531  2D61               	goto	l3873
  7637  1532                     u4610:
  7638  1532                     l3857:
  7639  1532  01A0               	clrf	___awmod@counter
  7640  1533  0AA0               	incf	___awmod@counter,f
  7641  1534  2D40               	goto	l3863
  7642  1535                     l3859:
  7643  1535  3001               	movlw	1
  7644  1536                     u4625:
  7645  1536  1003               	clrc
  7646  1537  0DF3               	rlf	___awmod@divisor,f
  7647  1538  0DF4               	rlf	___awmod@divisor+1,f
  7648  1539  3EFF               	addlw	-1
  7649  153A  1D03               	skipz
  7650  153B  2D36               	goto	u4625
  7651  153C                     l3861:
  7652  153C  3001               	movlw	1
  7653  153D  00F7               	movwf	??___awmod
  7654  153E  0877               	movf	??___awmod,w
  7655  153F  07A0               	addwf	___awmod@counter,f
  7656  1540                     l3863:
  7657  1540  1FF4               	btfss	___awmod@divisor+1,7
  7658  1541  2D43               	goto	u4631
  7659  1542  2D44               	goto	u4630
  7660  1543                     u4631:
  7661  1543  2D35               	goto	l3859
  7662  1544                     u4630:
  7663  1544                     l3865:
  7664  1544  0874               	movf	___awmod@divisor+1,w
  7665  1545  0276               	subwf	___awmod@dividend+1,w
  7666  1546  1D03               	skipz
  7667  1547  2D4A               	goto	u4645
  7668  1548  0873               	movf	___awmod@divisor,w
  7669  1549  0275               	subwf	___awmod@dividend,w
  7670  154A                     u4645:
  7671  154A  1C03               	skipc
  7672  154B  2D4D               	goto	u4641
  7673  154C  2D4E               	goto	u4640
  7674  154D                     u4641:
  7675  154D  2D54               	goto	l3869
  7676  154E                     u4640:
  7677  154E                     l3867:
  7678  154E  0873               	movf	___awmod@divisor,w
  7679  154F  02F5               	subwf	___awmod@dividend,f
  7680  1550  0874               	movf	___awmod@divisor+1,w
  7681  1551  1C03               	skipc
  7682  1552  03F6               	decf	___awmod@dividend+1,f
  7683  1553  02F6               	subwf	___awmod@dividend+1,f
  7684  1554                     l3869:
  7685  1554  3001               	movlw	1
  7686  1555                     u4655:
  7687  1555  1003               	clrc
  7688  1556  0CF4               	rrf	___awmod@divisor+1,f
  7689  1557  0CF3               	rrf	___awmod@divisor,f
  7690  1558  3EFF               	addlw	-1
  7691  1559  1D03               	skipz
  7692  155A  2D55               	goto	u4655
  7693  155B                     l3871:
  7694  155B  3001               	movlw	1
  7695  155C  02A0               	subwf	___awmod@counter,f
  7696  155D  1D03               	btfss	3,2
  7697  155E  2D60               	goto	u4661
  7698  155F  2D61               	goto	u4660
  7699  1560                     u4661:
  7700  1560  2D44               	goto	l3865
  7701  1561                     u4660:
  7702  1561                     l3873:
  7703  1561  0821               	movf	___awmod@sign,w
  7704  1562  1903               	btfsc	3,2
  7705  1563  2D65               	goto	u4671
  7706  1564  2D66               	goto	u4670
  7707  1565                     u4671:
  7708  1565  2D6B               	goto	l3877
  7709  1566                     u4670:
  7710  1566                     l3875:
  7711  1566  09F5               	comf	___awmod@dividend,f
  7712  1567  09F6               	comf	___awmod@dividend+1,f
  7713  1568  0AF5               	incf	___awmod@dividend,f
  7714  1569  1903               	skipnz
  7715  156A  0AF6               	incf	___awmod@dividend+1,f
  7716  156B                     l3877:
  7717  156B  0876               	movf	___awmod@dividend+1,w
  7718  156C  00F4               	movwf	?___awmod+1
  7719  156D  0875               	movf	___awmod@dividend,w
  7720  156E  00F3               	movwf	?___awmod
  7721  156F                     l563:
  7722  156F  0008               	return
  7723  1570                     __end_of___awmod:
  7724                           
  7725                           	psect	text16
  7726  1637                     __ptext16:	
  7727 ;; *************** function ___awdiv *****************
  7728 ;; Defined at:
  7729 ;;		line 5 in file "C:\Program Files\Microchip\xc8\v2.32\pic\sources\c90\common\awdiv.c"
  7730 ;; Parameters:    Size  Location     Type
  7731 ;;  divisor         2    3[COMMON] int 
  7732 ;;  dividend        2    5[COMMON] int 
  7733 ;; Auto vars:     Size  Location     Type
  7734 ;;  quotient        2    2[BANK0 ] int 
  7735 ;;  sign            1    1[BANK0 ] unsigned char 
  7736 ;;  counter         1    0[BANK0 ] unsigned char 
  7737 ;; Return value:  Size  Location     Type
  7738 ;;                  2    3[COMMON] int 
  7739 ;; Registers used:
  7740 ;;		wreg, status,2, status,0
  7741 ;; Tracked objects:
  7742 ;;		On entry : 0/0
  7743 ;;		On exit  : 0/0
  7744 ;;		Unchanged: 0/0
  7745 ;; Data sizes:     COMMON   BANK0   BANK1   BANK3   BANK2
  7746 ;;      Params:         4       0       0       0       0
  7747 ;;      Locals:         0       4       0       0       0
  7748 ;;      Temps:          1       0       0       0       0
  7749 ;;      Totals:         5       4       0       0       0
  7750 ;;Total ram usage:        9 bytes
  7751 ;; Hardware stack levels used: 1
  7752 ;; Hardware stack levels required when called: 1
  7753 ;; This function calls:
  7754 ;;		Nothing
  7755 ;; This function is called by:
  7756 ;;		_run_program
  7757 ;; This function uses a non-reentrant model
  7758 ;;
  7759                           
  7760                           
  7761                           ;psect for function ___awdiv
  7762  1637                     ___awdiv:
  7763  1637                     l3799:	
  7764                           ;incstack = 0
  7765                           ; Regs used in ___awdiv: [wreg+status,2+status,0]
  7766                           
  7767  1637  1283               	bcf	3,5	;RP0=0, select bank0
  7768  1638  1303               	bcf	3,6	;RP1=0, select bank0
  7769  1639  01A1               	clrf	___awdiv@sign
  7770  163A                     l3801:
  7771  163A  1FF4               	btfss	___awdiv@divisor+1,7
  7772  163B  2E3D               	goto	u4491
  7773  163C  2E3E               	goto	u4490
  7774  163D                     u4491:
  7775  163D  2E45               	goto	l3807
  7776  163E                     u4490:
  7777  163E                     l3803:
  7778  163E  09F3               	comf	___awdiv@divisor,f
  7779  163F  09F4               	comf	___awdiv@divisor+1,f
  7780  1640  0AF3               	incf	___awdiv@divisor,f
  7781  1641  1903               	skipnz
  7782  1642  0AF4               	incf	___awdiv@divisor+1,f
  7783  1643                     l3805:
  7784  1643  01A1               	clrf	___awdiv@sign
  7785  1644  0AA1               	incf	___awdiv@sign,f
  7786  1645                     l3807:
  7787  1645  1FF6               	btfss	___awdiv@dividend+1,7
  7788  1646  2E48               	goto	u4501
  7789  1647  2E49               	goto	u4500
  7790  1648                     u4501:
  7791  1648  2E52               	goto	l3813
  7792  1649                     u4500:
  7793  1649                     l3809:
  7794  1649  09F5               	comf	___awdiv@dividend,f
  7795  164A  09F6               	comf	___awdiv@dividend+1,f
  7796  164B  0AF5               	incf	___awdiv@dividend,f
  7797  164C  1903               	skipnz
  7798  164D  0AF6               	incf	___awdiv@dividend+1,f
  7799  164E                     l3811:
  7800  164E  3001               	movlw	1
  7801  164F  00F7               	movwf	??___awdiv
  7802  1650  0877               	movf	??___awdiv,w
  7803  1651  06A1               	xorwf	___awdiv@sign,f
  7804  1652                     l3813:
  7805  1652  01A2               	clrf	___awdiv@quotient
  7806  1653  01A3               	clrf	___awdiv@quotient+1
  7807  1654                     l3815:
  7808  1654  0873               	movf	___awdiv@divisor,w
  7809  1655  0474               	iorwf	___awdiv@divisor+1,w
  7810  1656  1903               	btfsc	3,2
  7811  1657  2E59               	goto	u4511
  7812  1658  2E5A               	goto	u4510
  7813  1659                     u4511:
  7814  1659  2E91               	goto	l3835
  7815  165A                     u4510:
  7816  165A                     l3817:
  7817  165A  01A0               	clrf	___awdiv@counter
  7818  165B  0AA0               	incf	___awdiv@counter,f
  7819  165C  2E68               	goto	l3823
  7820  165D                     l3819:
  7821  165D  3001               	movlw	1
  7822  165E                     u4525:
  7823  165E  1003               	clrc
  7824  165F  0DF3               	rlf	___awdiv@divisor,f
  7825  1660  0DF4               	rlf	___awdiv@divisor+1,f
  7826  1661  3EFF               	addlw	-1
  7827  1662  1D03               	skipz
  7828  1663  2E5E               	goto	u4525
  7829  1664                     l3821:
  7830  1664  3001               	movlw	1
  7831  1665  00F7               	movwf	??___awdiv
  7832  1666  0877               	movf	??___awdiv,w
  7833  1667  07A0               	addwf	___awdiv@counter,f
  7834  1668                     l3823:
  7835  1668  1FF4               	btfss	___awdiv@divisor+1,7
  7836  1669  2E6B               	goto	u4531
  7837  166A  2E6C               	goto	u4530
  7838  166B                     u4531:
  7839  166B  2E5D               	goto	l3819
  7840  166C                     u4530:
  7841  166C                     l3825:
  7842  166C  3001               	movlw	1
  7843  166D                     u4545:
  7844  166D  1003               	clrc
  7845  166E  0DA2               	rlf	___awdiv@quotient,f
  7846  166F  0DA3               	rlf	___awdiv@quotient+1,f
  7847  1670  3EFF               	addlw	-1
  7848  1671  1D03               	skipz
  7849  1672  2E6D               	goto	u4545
  7850  1673  0874               	movf	___awdiv@divisor+1,w
  7851  1674  0276               	subwf	___awdiv@dividend+1,w
  7852  1675  1D03               	skipz
  7853  1676  2E79               	goto	u4555
  7854  1677  0873               	movf	___awdiv@divisor,w
  7855  1678  0275               	subwf	___awdiv@dividend,w
  7856  1679                     u4555:
  7857  1679  1C03               	skipc
  7858  167A  2E7C               	goto	u4551
  7859  167B  2E7D               	goto	u4550
  7860  167C                     u4551:
  7861  167C  2E84               	goto	l3831
  7862  167D                     u4550:
  7863  167D                     l3827:
  7864  167D  0873               	movf	___awdiv@divisor,w
  7865  167E  02F5               	subwf	___awdiv@dividend,f
  7866  167F  0874               	movf	___awdiv@divisor+1,w
  7867  1680  1C03               	skipc
  7868  1681  03F6               	decf	___awdiv@dividend+1,f
  7869  1682  02F6               	subwf	___awdiv@dividend+1,f
  7870  1683                     l3829:
  7871  1683  1422               	bsf	___awdiv@quotient,0
  7872  1684                     l3831:
  7873  1684  3001               	movlw	1
  7874  1685                     u4565:
  7875  1685  1003               	clrc
  7876  1686  0CF4               	rrf	___awdiv@divisor+1,f
  7877  1687  0CF3               	rrf	___awdiv@divisor,f
  7878  1688  3EFF               	addlw	-1
  7879  1689  1D03               	skipz
  7880  168A  2E85               	goto	u4565
  7881  168B                     l3833:
  7882  168B  3001               	movlw	1
  7883  168C  02A0               	subwf	___awdiv@counter,f
  7884  168D  1D03               	btfss	3,2
  7885  168E  2E90               	goto	u4571
  7886  168F  2E91               	goto	u4570
  7887  1690                     u4571:
  7888  1690  2E6C               	goto	l3825
  7889  1691                     u4570:
  7890  1691                     l3835:
  7891  1691  0821               	movf	___awdiv@sign,w
  7892  1692  1903               	btfsc	3,2
  7893  1693  2E95               	goto	u4581
  7894  1694  2E96               	goto	u4580
  7895  1695                     u4581:
  7896  1695  2E9B               	goto	l3839
  7897  1696                     u4580:
  7898  1696                     l3837:
  7899  1696  09A2               	comf	___awdiv@quotient,f
  7900  1697  09A3               	comf	___awdiv@quotient+1,f
  7901  1698  0AA2               	incf	___awdiv@quotient,f
  7902  1699  1903               	skipnz
  7903  169A  0AA3               	incf	___awdiv@quotient+1,f
  7904  169B                     l3839:
  7905  169B  0823               	movf	___awdiv@quotient+1,w
  7906  169C  00F4               	movwf	?___awdiv+1
  7907  169D  0822               	movf	___awdiv@quotient,w
  7908  169E  00F3               	movwf	?___awdiv
  7909  169F                     l550:
  7910  169F  0008               	return
  7911  16A0                     __end_of___awdiv:
  7912                           
  7913                           	psect	text17
  7914  079A                     __ptext17:	
  7915 ;; *************** function _read_digital_keypad *****************
  7916 ;; Defined at:
  7917 ;;		line 20 in file "digital_keypad.c"
  7918 ;; Parameters:    Size  Location     Type
  7919 ;;  mode            1    wreg     unsigned char 
  7920 ;; Auto vars:     Size  Location     Type
  7921 ;;  mode            1    4[COMMON] unsigned char 
  7922 ;; Return value:  Size  Location     Type
  7923 ;;                  1    wreg      unsigned char 
  7924 ;; Registers used:
  7925 ;;		wreg, status,2, status,0
  7926 ;; Tracked objects:
  7927 ;;		On entry : 0/0
  7928 ;;		On exit  : 0/0
  7929 ;;		Unchanged: 0/0
  7930 ;; Data sizes:     COMMON   BANK0   BANK1   BANK3   BANK2
  7931 ;;      Params:         0       0       0       0       0
  7932 ;;      Locals:         1       0       0       0       0
  7933 ;;      Temps:          1       0       0       0       0
  7934 ;;      Totals:         2       0       0       0       0
  7935 ;;Total ram usage:        2 bytes
  7936 ;; Hardware stack levels used: 1
  7937 ;; Hardware stack levels required when called: 1
  7938 ;; This function calls:
  7939 ;;		Nothing
  7940 ;; This function is called by:
  7941 ;;		_main
  7942 ;; This function uses a non-reentrant model
  7943 ;;
  7944                           
  7945                           
  7946                           ;psect for function _read_digital_keypad
  7947  079A                     _read_digital_keypad:
  7948                           
  7949                           ;incstack = 0
  7950                           ; Regs used in _read_digital_keypad: [wreg+status,2+status,0]
  7951                           ;read_digital_keypad@mode stored from wreg
  7952  079A  00F4               	movwf	read_digital_keypad@mode
  7953  079B                     l4127:
  7954                           
  7955                           ;digital_keypad.c: 20: unsigned char read_digital_keypad(unsigned char mode);digital_key
      +                          pad.c: 21: {;digital_keypad.c: 23:     static unsigned char once = 1;;digital_keypad.c: 
      +                          24:     static unsigned char pre_key;;digital_keypad.c: 25:     static unsigned char lon
      +                          gpress;;digital_keypad.c: 27:     if (mode == 0)
  7956  079B  0874               	movf	read_digital_keypad@mode,w
  7957  079C  1D03               	btfss	3,2
  7958  079D  2F9F               	goto	u5361
  7959  079E  2FA0               	goto	u5360
  7960  079F                     u5361:
  7961  079F  2FA5               	goto	l4135
  7962  07A0                     u5360:
  7963  07A0                     l4129:
  7964                           
  7965                           ;digital_keypad.c: 28:     {;digital_keypad.c: 29:         return PORTB & 0x3F;
  7966  07A0  1283               	bcf	3,5	;RP0=0, select bank0
  7967  07A1  1303               	bcf	3,6	;RP1=0, select bank0
  7968  07A2  0806               	movf	6,w	;volatile
  7969  07A3  393F               	andlw	63
  7970  07A4  2FFA               	goto	l49
  7971  07A5                     l4135:
  7972                           
  7973                           ;digital_keypad.c: 32:     {;digital_keypad.c: 33:         if (((PORTB & 0x3F) != 0x3F) 
      +                          && once)
  7974  07A5  303F               	movlw	63
  7975  07A6  1283               	bcf	3,5	;RP0=0, select bank0
  7976  07A7  1303               	bcf	3,6	;RP1=0, select bank0
  7977  07A8  0506               	andwf	6,w	;volatile
  7978  07A9  00F3               	movwf	??_read_digital_keypad
  7979  07AA  303F               	movlw	63
  7980  07AB  0673               	xorwf	??_read_digital_keypad,w
  7981  07AC  1903               	btfsc	3,2
  7982  07AD  2FAF               	goto	u5371
  7983  07AE  2FB0               	goto	u5370
  7984  07AF                     u5371:
  7985  07AF  2FBD               	goto	l4143
  7986  07B0                     u5370:
  7987  07B0                     l4137:
  7988  07B0  086E               	movf	read_digital_keypad@once,w
  7989  07B1  1903               	btfsc	3,2
  7990  07B2  2FB4               	goto	u5381
  7991  07B3  2FB5               	goto	u5380
  7992  07B4                     u5381:
  7993  07B4  2FBD               	goto	l4143
  7994  07B5                     u5380:
  7995  07B5                     l4139:
  7996                           
  7997                           ;digital_keypad.c: 34:         {;digital_keypad.c: 35:             once = 0;
  7998  07B5  01EE               	clrf	read_digital_keypad@once
  7999                           
  8000                           ;digital_keypad.c: 36:             longpress = 0;
  8001  07B6  01EB               	clrf	read_digital_keypad@longpress
  8002  07B7                     l4141:
  8003                           
  8004                           ;digital_keypad.c: 37:             pre_key = PORTB & 0x3F;
  8005  07B7  0806               	movf	6,w	;volatile
  8006  07B8  393F               	andlw	63
  8007  07B9  00F3               	movwf	??_read_digital_keypad
  8008  07BA  0873               	movf	??_read_digital_keypad,w
  8009  07BB  00EC               	movwf	read_digital_keypad@pre_key
  8010                           
  8011                           ;digital_keypad.c: 39:         }
  8012  07BC  2FF9               	goto	l4173
  8013  07BD                     l4143:
  8014  07BD  086E               	movf	read_digital_keypad@once,w
  8015  07BE  1D03               	btfss	3,2
  8016  07BF  2FC1               	goto	u5391
  8017  07C0  2FC2               	goto	u5390
  8018  07C1                     u5391:
  8019  07C1  2FD4               	goto	l4151
  8020  07C2                     u5390:
  8021  07C2                     l4145:
  8022  07C2  0806               	movf	6,w	;volatile
  8023  07C3  393F               	andlw	63
  8024  07C4  066C               	xorwf	read_digital_keypad@pre_key,w
  8025  07C5  1D03               	skipz
  8026  07C6  2FC8               	goto	u5401
  8027  07C7  2FC9               	goto	u5400
  8028  07C8                     u5401:
  8029  07C8  2FD4               	goto	l4151
  8030  07C9                     u5400:
  8031  07C9                     l4147:
  8032  07C9  301E               	movlw	30
  8033  07CA  026B               	subwf	read_digital_keypad@longpress,w
  8034  07CB  1803               	skipnc
  8035  07CC  2FCE               	goto	u5411
  8036  07CD  2FCF               	goto	u5410
  8037  07CE                     u5411:
  8038  07CE  2FD4               	goto	l4151
  8039  07CF                     u5410:
  8040  07CF                     l4149:
  8041                           
  8042                           ;digital_keypad.c: 41:         {;digital_keypad.c: 42:             longpress++;
  8043  07CF  3001               	movlw	1
  8044  07D0  00F3               	movwf	??_read_digital_keypad
  8045  07D1  0873               	movf	??_read_digital_keypad,w
  8046  07D2  07EB               	addwf	read_digital_keypad@longpress,f
  8047                           
  8048                           ;digital_keypad.c: 43:         }
  8049  07D3  2FF9               	goto	l4173
  8050  07D4                     l4151:
  8051  07D4  301E               	movlw	30
  8052  07D5  066B               	xorwf	read_digital_keypad@longpress,w
  8053  07D6  1D03               	btfss	3,2
  8054  07D7  2FD9               	goto	u5421
  8055  07D8  2FDA               	goto	u5420
  8056  07D9                     u5421:
  8057  07D9  2FE1               	goto	l4161
  8058  07DA                     u5420:
  8059  07DA                     l4153:
  8060                           
  8061                           ;digital_keypad.c: 45:         {;digital_keypad.c: 46:             longpress++;
  8062  07DA  3001               	movlw	1
  8063  07DB  00F3               	movwf	??_read_digital_keypad
  8064  07DC  0873               	movf	??_read_digital_keypad,w
  8065  07DD  07EB               	addwf	read_digital_keypad@longpress,f
  8066  07DE                     l4155:
  8067                           
  8068                           ;digital_keypad.c: 47:             return 0x80 | pre_key;
  8069  07DE  086C               	movf	read_digital_keypad@pre_key,w
  8070  07DF  3880               	iorlw	128
  8071  07E0  2FFA               	goto	l49
  8072  07E1                     l4161:
  8073  07E1  303F               	movlw	63
  8074  07E2  0506               	andwf	6,w	;volatile
  8075  07E3  00F3               	movwf	??_read_digital_keypad
  8076  07E4  303F               	movlw	63
  8077  07E5  0673               	xorwf	??_read_digital_keypad,w
  8078  07E6  1D03               	btfss	3,2
  8079  07E7  2FE9               	goto	u5431
  8080  07E8  2FEA               	goto	u5430
  8081  07E9                     u5431:
  8082  07E9  2FF9               	goto	l4173
  8083  07EA                     u5430:
  8084  07EA                     l4163:
  8085  07EA  086E               	movf	read_digital_keypad@once,w
  8086  07EB  1D03               	btfss	3,2
  8087  07EC  2FEE               	goto	u5441
  8088  07ED  2FEF               	goto	u5440
  8089  07EE                     u5441:
  8090  07EE  2FF9               	goto	l4173
  8091  07EF                     u5440:
  8092  07EF                     l4165:
  8093                           
  8094                           ;digital_keypad.c: 50:         {;digital_keypad.c: 51:             once = 1;
  8095  07EF  01EE               	clrf	read_digital_keypad@once
  8096  07F0  0AEE               	incf	read_digital_keypad@once,f
  8097  07F1                     l4167:
  8098                           
  8099                           ;digital_keypad.c: 52:             if(longpress < 30)
  8100  07F1  301E               	movlw	30
  8101  07F2  026B               	subwf	read_digital_keypad@longpress,w
  8102  07F3  1803               	skipnc
  8103  07F4  2FF6               	goto	u5451
  8104  07F5  2FF7               	goto	u5450
  8105  07F6                     u5451:
  8106  07F6  2FF9               	goto	l54
  8107  07F7                     u5450:
  8108  07F7                     l4169:
  8109                           
  8110                           ;digital_keypad.c: 53:             {;digital_keypad.c: 54:                 return pre_ke
      +                          y;
  8111  07F7  086C               	movf	read_digital_keypad@pre_key,w
  8112  07F8  2FFA               	goto	l49
  8113  07F9                     l54:
  8114  07F9                     l4173:
  8115                           
  8116                           ;digital_keypad.c: 59:     return 0x3F;
  8117  07F9  303F               	movlw	63
  8118  07FA                     l49:
  8119  07FA  0008               	return
  8120  07FB                     __end_of_read_digital_keypad:
  8121                           
  8122                           	psect	text18
  8123  1570                     __ptext18:	
  8124 ;; *************** function _power_on_screen *****************
  8125 ;; Defined at:
  8126 ;;		line 121 in file "main.c"
  8127 ;; Parameters:    Size  Location     Type
  8128 ;;		None
  8129 ;; Auto vars:     Size  Location     Type
  8130 ;;  i               1   10[BANK0 ] unsigned char 
  8131 ;;  i               1    9[BANK0 ] unsigned char 
  8132 ;; Return value:  Size  Location     Type
  8133 ;;                  1    wreg      void 
  8134 ;; Registers used:
  8135 ;;		wreg, fsr0l, fsr0h, status,2, status,0, btemp+1, pclath, cstack
  8136 ;; Tracked objects:
  8137 ;;		On entry : 0/0
  8138 ;;		On exit  : 0/0
  8139 ;;		Unchanged: 0/0
  8140 ;; Data sizes:     COMMON   BANK0   BANK1   BANK3   BANK2
  8141 ;;      Params:         0       0       0       0       0
  8142 ;;      Locals:         0       2       0       0       0
  8143 ;;      Temps:          0       3       0       0       0
  8144 ;;      Totals:         0       5       0       0       0
  8145 ;;Total ram usage:        5 bytes
  8146 ;; Hardware stack levels used: 1
  8147 ;; Hardware stack levels required when called: 3
  8148 ;; This function calls:
  8149 ;;		_clcd_print
  8150 ;;		_clcd_putch
  8151 ;; This function is called by:
  8152 ;;		_main
  8153 ;; This function uses a non-reentrant model
  8154 ;;
  8155                           
  8156                           
  8157                           ;psect for function _power_on_screen
  8158  1570                     _power_on_screen:
  8159  1570                     l4189:	
  8160                           ;incstack = 0
  8161                           ; Regs used in _power_on_screen: [wreg-fsr0h+status,2+status,0+btemp+1+pclath+cstack]
  8162                           
  8163                           
  8164                           ;main.c: 123: void washing_programs_display(unsigned char key)
  8165  1570  1283               	bcf	3,5	;RP0=0, select bank0
  8166  1571  1303               	bcf	3,6	;RP1=0, select bank0
  8167  1572  01A9               	clrf	power_on_screen@i
  8168  1573                     l4195:
  8169                           
  8170                           ;main.c: 124: {;main.c: 125:    if(reset_mode == 0x10)
  8171  1573  0829               	movf	power_on_screen@i,w
  8172  1574  3E80               	addlw	128
  8173  1575  00A6               	movwf	??_power_on_screen
  8174  1576  0826               	movf	??_power_on_screen,w
  8175  1577  00A4               	movwf	clcd_putch@addr
  8176  1578  30FF               	movlw	255
  8177  1579  160A  118A  236D  160A  118A  	fcall	_clcd_putch
  8178  157E                     l4197:
  8179                           
  8180                           ;main.c: 126:    {
  8181  157E  3001               	movlw	1
  8182  157F  1283               	bcf	3,5	;RP0=0, select bank0
  8183  1580  1303               	bcf	3,6	;RP1=0, select bank0
  8184  1581  00A6               	movwf	??_power_on_screen
  8185  1582  0826               	movf	??_power_on_screen,w
  8186  1583  07A9               	addwf	power_on_screen@i,f
  8187  1584                     l4199:
  8188  1584  3010               	movlw	16
  8189  1585  0229               	subwf	power_on_screen@i,w
  8190  1586  1C03               	skipc
  8191  1587  2D89               	goto	u5461
  8192  1588  2D8A               	goto	u5460
  8193  1589                     u5461:
  8194  1589  2D73               	goto	l4195
  8195  158A                     u5460:
  8196  158A                     l4201:
  8197                           
  8198                           ;main.c: 127:        clear_screen();
  8199  158A  3011               	movlw	low (STR_24| (0+32768))
  8200  158B  00A0               	movwf	clcd_print@str
  8201  158C  3090               	movlw	high (STR_24| (0+32768))
  8202  158D  00A1               	movwf	clcd_print@str+1
  8203  158E  30C0               	movlw	192
  8204  158F  00A6               	movwf	??_power_on_screen
  8205  1590  0826               	movf	??_power_on_screen,w
  8206  1591  00A2               	movwf	clcd_print@addr
  8207  1592  160A  118A  2454  160A  118A  	fcall	_clcd_print
  8208                           
  8209                           ;main.c: 128:        program_no=0;
  8210  1597  3055               	movlw	low (STR_25| (0+32768))
  8211  1598  1283               	bcf	3,5	;RP0=0, select bank0
  8212  1599  1303               	bcf	3,6	;RP1=0, select bank0
  8213  159A  00A0               	movwf	clcd_print@str
  8214  159B  3090               	movlw	high (STR_25| (0+32768))
  8215  159C  00A1               	movwf	clcd_print@str+1
  8216  159D  3090               	movlw	144
  8217  159E  00A6               	movwf	??_power_on_screen
  8218  159F  0826               	movf	??_power_on_screen,w
  8219  15A0  00A2               	movwf	clcd_print@addr
  8220  15A1  160A  118A  2454  160A  118A  	fcall	_clcd_print
  8221  15A6                     l4203:
  8222                           
  8223                           ;main.c: 130:    }
  8224  15A6  1283               	bcf	3,5	;RP0=0, select bank0
  8225  15A7  1303               	bcf	3,6	;RP1=0, select bank0
  8226  15A8  01AA               	clrf	power_on_screen@i_158
  8227  15A9                     l4209:
  8228                           
  8229                           ;main.c: 131:    if(key == 0x37);main.c: 132:    {
  8230  15A9  082A               	movf	power_on_screen@i_158,w
  8231  15AA  3ED0               	addlw	208
  8232  15AB  00A6               	movwf	??_power_on_screen
  8233  15AC  0826               	movf	??_power_on_screen,w
  8234  15AD  00A4               	movwf	clcd_putch@addr
  8235  15AE  30FF               	movlw	255
  8236  15AF  160A  118A  236D  160A  118A  	fcall	_clcd_putch
  8237  15B4                     l4211:
  8238                           
  8239                           ;main.c: 133:        program_no++;
  8240  15B4  3001               	movlw	1
  8241  15B5  1283               	bcf	3,5	;RP0=0, select bank0
  8242  15B6  1303               	bcf	3,6	;RP1=0, select bank0
  8243  15B7  00A6               	movwf	??_power_on_screen
  8244  15B8  0826               	movf	??_power_on_screen,w
  8245  15B9  07AA               	addwf	power_on_screen@i_158,f
  8246  15BA                     l4213:
  8247  15BA  3010               	movlw	16
  8248  15BB  022A               	subwf	power_on_screen@i_158,w
  8249  15BC  1C03               	skipc
  8250  15BD  2DBF               	goto	u5471
  8251  15BE  2DC0               	goto	u5470
  8252  15BF                     u5471:
  8253  15BF  2DA9               	goto	l4209
  8254  15C0                     u5470:
  8255  15C0                     l4215:
  8256                           
  8257                           ;main.c: 134:        if(program_no== 12)
  8258  15C0  304D               	movlw	77
  8259  15C1  1283               	bcf	3,5	;RP0=0, select bank0
  8260  15C2  1303               	bcf	3,6	;RP1=0, select bank0
  8261  15C3  00A8               	movwf	??_power_on_screen+2
  8262  15C4  3019               	movlw	25
  8263  15C5  00A7               	movwf	??_power_on_screen+1
  8264  15C6  304F               	movlw	79
  8265  15C7  00A6               	movwf	??_power_on_screen
  8266  15C8                     u5847:
  8267  15C8  0BA6               	decfsz	??_power_on_screen,f
  8268  15C9  2DC8               	goto	u5847
  8269  15CA  0BA7               	decfsz	??_power_on_screen+1,f
  8270  15CB  2DC8               	goto	u5847
  8271  15CC  0BA8               	decfsz	??_power_on_screen+2,f
  8272  15CD  2DC8               	goto	u5847
  8273  15CE                     l170:
  8274  15CE  0008               	return
  8275  15CF                     __end_of_power_on_screen:
  8276                           
  8277                           	psect	text19
  8278  136D                     __ptext19:	
  8279 ;; *************** function _clcd_putch *****************
  8280 ;; Defined at:
  8281 ;;		line 46 in file "clcd.c"
  8282 ;; Parameters:    Size  Location     Type
  8283 ;;  data            1    wreg     const unsigned char 
  8284 ;;  addr            1    4[BANK0 ] unsigned char 
  8285 ;; Auto vars:     Size  Location     Type
  8286 ;;  data            1    5[BANK0 ] const unsigned char 
  8287 ;; Return value:  Size  Location     Type
  8288 ;;                  1    wreg      void 
  8289 ;; Registers used:
  8290 ;;		wreg, status,2, status,0, pclath, cstack
  8291 ;; Tracked objects:
  8292 ;;		On entry : 0/0
  8293 ;;		On exit  : 0/0
  8294 ;;		Unchanged: 0/0
  8295 ;; Data sizes:     COMMON   BANK0   BANK1   BANK3   BANK2
  8296 ;;      Params:         0       1       0       0       0
  8297 ;;      Locals:         0       1       0       0       0
  8298 ;;      Temps:          0       0       0       0       0
  8299 ;;      Totals:         0       2       0       0       0
  8300 ;;Total ram usage:        2 bytes
  8301 ;; Hardware stack levels used: 1
  8302 ;; Hardware stack levels required when called: 2
  8303 ;; This function calls:
  8304 ;;		_clcd_write
  8305 ;; This function is called by:
  8306 ;;		_power_on_screen
  8307 ;;		_washing_programs_display
  8308 ;;		_water_level_display
  8309 ;;		_run_program
  8310 ;; This function uses a non-reentrant model
  8311 ;;
  8312                           
  8313                           
  8314                           ;psect for function _clcd_putch
  8315  136D                     _clcd_putch:
  8316                           
  8317                           ;incstack = 0
  8318                           ; Regs used in _clcd_putch: [wreg+status,2+status,0+pclath+cstack]
  8319                           ;clcd_putch@data stored from wreg
  8320  136D  1283               	bcf	3,5	;RP0=0, select bank0
  8321  136E  1303               	bcf	3,6	;RP1=0, select bank0
  8322  136F  00A5               	movwf	clcd_putch@data
  8323  1370                     l3749:
  8324                           
  8325                           ;clcd.c: 46: void clcd_putch(const char data, unsigned char addr);clcd.c: 47: {;clcd.c: 
      +                          48:     clcd_write(addr, 0);
  8326  1370  01F3               	clrf	clcd_write@mode
  8327  1371  0824               	movf	clcd_putch@addr,w
  8328  1372  160A  118A  239A  160A  118A  	fcall	_clcd_write
  8329                           
  8330                           ;clcd.c: 49:     clcd_write(data, 1);
  8331  1377  01F3               	clrf	clcd_write@mode
  8332  1378  0AF3               	incf	clcd_write@mode,f
  8333  1379  1283               	bcf	3,5	;RP0=0, select bank0
  8334  137A  1303               	bcf	3,6	;RP1=0, select bank0
  8335  137B  0825               	movf	clcd_putch@data,w
  8336  137C  160A  118A  239A  160A  118A  	fcall	_clcd_write
  8337  1381                     l26:
  8338  1381  0008               	return
  8339  1382                     __end_of_clcd_putch:
  8340                           
  8341                           	psect	text20
  8342  1454                     __ptext20:	
  8343 ;; *************** function _clcd_print *****************
  8344 ;; Defined at:
  8345 ;;		line 52 in file "clcd.c"
  8346 ;; Parameters:    Size  Location     Type
  8347 ;;  str             2    0[BANK0 ] PTR const unsigned char 
  8348 ;;		 -> STR_47(14), STR_46(16), STR_45(5), STR_44(6), 
  8349 ;;		 -> STR_43(6), STR_42(6), STR_41(6), STR_40(6), 
  8350 ;;		 -> STR_39(5), STR_38(17), STR_37(5), STR_36(11), 
  8351 ;;		 -> STR_35(8), STR_34(6), STR_33(7), STR_32(17), 
  8352 ;;		 -> STR_31(5), STR_30(11), STR_29(13), STR_28(12), 
  8353 ;;		 -> STR_27(13), STR_26(17), STR_25(17), STR_24(17), 
  8354 ;;		 -> STR_23(12), STR_22(13), STR_21(13), STR_20(17), 
  8355 ;;		 -> STR_19(17), STR_18(17), STR_17(4), STR_16(5), 
  8356 ;;		 -> STR_15(7), STR_14(4), STR_13(5), STR_12(10), 
  8357 ;;		 -> STR_11(10), STR_10(9), STR_9(10), STR_8(11), 
  8358 ;;		 -> STR_7(9), STR_6(12), STR_5(10), STR_4(7), 
  8359 ;;		 -> STR_3(10), STR_2(6), STR_1(8), 
  8360 ;;  addr            1    2[BANK0 ] unsigned char 
  8361 ;; Auto vars:     Size  Location     Type
  8362 ;;		None
  8363 ;; Return value:  Size  Location     Type
  8364 ;;                  1    wreg      void 
  8365 ;; Registers used:
  8366 ;;		wreg, fsr0l, fsr0h, status,2, status,0, btemp+1, pclath, cstack
  8367 ;; Tracked objects:
  8368 ;;		On entry : 0/0
  8369 ;;		On exit  : 0/0
  8370 ;;		Unchanged: 0/0
  8371 ;; Data sizes:     COMMON   BANK0   BANK1   BANK3   BANK2
  8372 ;;      Params:         0       3       0       0       0
  8373 ;;      Locals:         0       0       0       0       0
  8374 ;;      Temps:          0       0       0       0       0
  8375 ;;      Totals:         0       3       0       0       0
  8376 ;;Total ram usage:        3 bytes
  8377 ;; Hardware stack levels used: 1
  8378 ;; Hardware stack levels required when called: 2
  8379 ;; This function calls:
  8380 ;;		_clcd_write
  8381 ;; This function is called by:
  8382 ;;		_main
  8383 ;;		_power_on_screen
  8384 ;;		_washing_programs_display
  8385 ;;		_water_level_display
  8386 ;;		_door_status_check
  8387 ;;		_run_program
  8388 ;; This function uses a non-reentrant model
  8389 ;;
  8390                           
  8391                           
  8392                           ;psect for function _clcd_print
  8393  1454                     _clcd_print:
  8394  1454                     l3521:	
  8395                           ;incstack = 0
  8396                           ; Regs used in _clcd_print: [wreg-fsr0h+status,2+status,0+btemp+1+pclath+cstack]
  8397                           
  8398                           
  8399                           ;clcd.c: 52: void clcd_print(const char *str, unsigned char addr);clcd.c: 53: {;clcd.c: 
      +                          54:     clcd_write(addr, 0);
  8400  1454  01F3               	clrf	clcd_write@mode
  8401  1455  1283               	bcf	3,5	;RP0=0, select bank0
  8402  1456  1303               	bcf	3,6	;RP1=0, select bank0
  8403  1457  0822               	movf	clcd_print@addr,w
  8404  1458  160A  118A  239A  160A  118A  	fcall	_clcd_write
  8405                           
  8406                           ;clcd.c: 56:     while (*str != '\0')
  8407  145D  2C76               	goto	l3527
  8408  145E                     l3523:
  8409                           
  8410                           ;clcd.c: 57:     {;clcd.c: 58:         clcd_write(*str, 1);
  8411  145E  01F3               	clrf	clcd_write@mode
  8412  145F  0AF3               	incf	clcd_write@mode,f
  8413  1460  0821               	movf	clcd_print@str+1,w
  8414  1461  00FF               	movwf	btemp+1
  8415  1462  0820               	movf	clcd_print@str,w
  8416  1463  0084               	movwf	4
  8417  1464  160A  118A  21A0  160A  118A  	fcall	stringtab
  8418  1469  160A  118A  239A  160A  118A  	fcall	_clcd_write
  8419  146E                     l3525:
  8420                           
  8421                           ;clcd.c: 59:         str++;
  8422  146E  3001               	movlw	1
  8423  146F  1283               	bcf	3,5	;RP0=0, select bank0
  8424  1470  1303               	bcf	3,6	;RP1=0, select bank0
  8425  1471  07A0               	addwf	clcd_print@str,f
  8426  1472  1803               	skipnc
  8427  1473  0AA1               	incf	clcd_print@str+1,f
  8428  1474  3000               	movlw	0
  8429  1475  07A1               	addwf	clcd_print@str+1,f
  8430  1476                     l3527:
  8431                           
  8432                           ;clcd.c: 56:     while (*str != '\0')
  8433  1476  1283               	bcf	3,5	;RP0=0, select bank0
  8434  1477  1303               	bcf	3,6	;RP1=0, select bank0
  8435  1478  0821               	movf	clcd_print@str+1,w
  8436  1479  00FF               	movwf	btemp+1
  8437  147A  0820               	movf	clcd_print@str,w
  8438  147B  0084               	movwf	4
  8439  147C  160A  118A  21A0  160A  118A  	fcall	stringtab
  8440  1481  3A00               	xorlw	0
  8441  1482  1D03               	skipz
  8442  1483  2C85               	goto	u3931
  8443  1484  2C86               	goto	u3930
  8444  1485                     u3931:
  8445  1485  2C5E               	goto	l3523
  8446  1486                     u3930:
  8447  1486                     l32:
  8448  1486  0008               	return
  8449  1487                     __end_of_clcd_print:
  8450                           
  8451                           	psect	text21
  8452  1382                     __ptext21:	
  8453 ;; *************** function _init_config *****************
  8454 ;; Defined at:
  8455 ;;		line 24 in file "main.c"
  8456 ;; Parameters:    Size  Location     Type
  8457 ;;		None
  8458 ;; Auto vars:     Size  Location     Type
  8459 ;;		None
  8460 ;; Return value:  Size  Location     Type
  8461 ;;                  1    wreg      void 
  8462 ;; Registers used:
  8463 ;;		wreg, status,2, status,0, pclath, cstack
  8464 ;; Tracked objects:
  8465 ;;		On entry : 0/0
  8466 ;;		On exit  : 0/0
  8467 ;;		Unchanged: 0/0
  8468 ;; Data sizes:     COMMON   BANK0   BANK1   BANK3   BANK2
  8469 ;;      Params:         0       0       0       0       0
  8470 ;;      Locals:         0       0       0       0       0
  8471 ;;      Temps:          0       0       0       0       0
  8472 ;;      Totals:         0       0       0       0       0
  8473 ;;Total ram usage:        0 bytes
  8474 ;; Hardware stack levels used: 1
  8475 ;; Hardware stack levels required when called: 4
  8476 ;; This function calls:
  8477 ;;		_init_clcd
  8478 ;;		_init_digital_keypad
  8479 ;;		_init_timer2
  8480 ;; This function is called by:
  8481 ;;		_main
  8482 ;; This function uses a non-reentrant model
  8483 ;;
  8484                           
  8485                           
  8486                           ;psect for function _init_config
  8487  1382                     _init_config:
  8488  1382                     l4177:	
  8489                           ;incstack = 0
  8490                           ; Regs used in _init_config: [wreg+status,2+status,0+pclath+cstack]
  8491                           
  8492                           
  8493                           ;main.c: 26:     init_config();
  8494  1382  160A  118A  2335  160A  118A  	fcall	_init_clcd
  8495                           
  8496                           ;main.c: 29:     clcd_print("   POWER ON     ",(0xC0 + 0));
  8497  1387  160A  118A  232F  160A  118A  	fcall	_init_digital_keypad
  8498                           
  8499                           ;main.c: 30:     clcd_print(" WASHING MACHINE",(0x90 + 0));
  8500  138C  160A  118A  2340  160A  118A  	fcall	_init_timer2
  8501  1391                     l4179:
  8502                           
  8503                           ;main.c: 31: 
  8504  1391  170B               	bsf	11,6	;volatile
  8505  1392                     l4181:
  8506                           
  8507                           ;main.c: 32:     while( read_digital_keypad(1) != 0x2F)
  8508  1392  178B               	bsf	11,7	;volatile
  8509  1393                     l4183:
  8510                           
  8511                           ;main.c: 33:     {
  8512  1393  1683               	bsf	3,5	;RP0=1, select bank1
  8513  1394  1303               	bcf	3,6	;RP1=0, select bank1
  8514  1395  1107               	bcf	7,2	;volatile
  8515  1396                     l4185:
  8516                           
  8517                           ;main.c: 34:         for(int j=3000; j--; );
  8518  1396  1087               	bcf	7,1	;volatile
  8519  1397                     l4187:
  8520                           
  8521                           ;main.c: 35:     }
  8522  1397  3006               	movlw	6
  8523  1398  009F               	movwf	31	;volatile
  8524  1399                     l129:
  8525  1399  0008               	return
  8526  139A                     __end_of_init_config:
  8527                           
  8528                           	psect	text22
  8529  1340                     __ptext22:	
  8530 ;; *************** function _init_timer2 *****************
  8531 ;; Defined at:
  8532 ;;		line 3 in file "timer.c"
  8533 ;; Parameters:    Size  Location     Type
  8534 ;;		None
  8535 ;; Auto vars:     Size  Location     Type
  8536 ;;		None
  8537 ;; Return value:  Size  Location     Type
  8538 ;;                  1    wreg      void 
  8539 ;; Registers used:
  8540 ;;		wreg
  8541 ;; Tracked objects:
  8542 ;;		On entry : 0/0
  8543 ;;		On exit  : 0/0
  8544 ;;		Unchanged: 0/0
  8545 ;; Data sizes:     COMMON   BANK0   BANK1   BANK3   BANK2
  8546 ;;      Params:         0       0       0       0       0
  8547 ;;      Locals:         0       0       0       0       0
  8548 ;;      Temps:          0       0       0       0       0
  8549 ;;      Totals:         0       0       0       0       0
  8550 ;;Total ram usage:        0 bytes
  8551 ;; Hardware stack levels used: 1
  8552 ;; Hardware stack levels required when called: 1
  8553 ;; This function calls:
  8554 ;;		Nothing
  8555 ;; This function is called by:
  8556 ;;		_init_config
  8557 ;; This function uses a non-reentrant model
  8558 ;;
  8559                           
  8560                           
  8561                           ;psect for function _init_timer2
  8562  1340                     _init_timer2:
  8563  1340                     l3753:	
  8564                           ;incstack = 0
  8565                           ; Regs used in _init_timer2: [wreg]
  8566                           
  8567                           
  8568                           ;timer.c: 6:     T2CKPS0 = 1;
  8569  1340  1283               	bcf	3,5	;RP0=0, select bank0
  8570  1341  1303               	bcf	3,6	;RP1=0, select bank0
  8571  1342  1412               	bsf	18,0	;volatile
  8572                           
  8573                           ;timer.c: 7:     T2CKPS1 = 1;
  8574  1343  1492               	bsf	18,1	;volatile
  8575  1344                     l3755:
  8576                           
  8577                           ;timer.c: 10:     PR2 = 250;
  8578  1344  30FA               	movlw	250
  8579  1345  1683               	bsf	3,5	;RP0=1, select bank1
  8580  1346  1303               	bcf	3,6	;RP1=0, select bank1
  8581  1347  0092               	movwf	18	;volatile
  8582  1348                     l3757:
  8583                           
  8584                           ;timer.c: 13:     TMR2IE = 1;
  8585  1348  148C               	bsf	12,1	;volatile
  8586  1349                     l3759:
  8587                           
  8588                           ;timer.c: 16:     TMR2ON = 0;
  8589  1349  1283               	bcf	3,5	;RP0=0, select bank0
  8590  134A  1303               	bcf	3,6	;RP1=0, select bank0
  8591  134B  1112               	bcf	18,2	;volatile
  8592  134C                     l293:
  8593  134C  0008               	return
  8594  134D                     __end_of_init_timer2:
  8595                           
  8596                           	psect	text23
  8597  132F                     __ptext23:	
  8598 ;; *************** function _init_digital_keypad *****************
  8599 ;; Defined at:
  8600 ;;		line 13 in file "digital_keypad.c"
  8601 ;; Parameters:    Size  Location     Type
  8602 ;;		None
  8603 ;; Auto vars:     Size  Location     Type
  8604 ;;		None
  8605 ;; Return value:  Size  Location     Type
  8606 ;;                  1    wreg      void 
  8607 ;; Registers used:
  8608 ;;		wreg, status,2
  8609 ;; Tracked objects:
  8610 ;;		On entry : 0/0
  8611 ;;		On exit  : 0/0
  8612 ;;		Unchanged: 0/0
  8613 ;; Data sizes:     COMMON   BANK0   BANK1   BANK3   BANK2
  8614 ;;      Params:         0       0       0       0       0
  8615 ;;      Locals:         0       0       0       0       0
  8616 ;;      Temps:          0       0       0       0       0
  8617 ;;      Totals:         0       0       0       0       0
  8618 ;;Total ram usage:        0 bytes
  8619 ;; Hardware stack levels used: 1
  8620 ;; Hardware stack levels required when called: 1
  8621 ;; This function calls:
  8622 ;;		Nothing
  8623 ;; This function is called by:
  8624 ;;		_init_config
  8625 ;; This function uses a non-reentrant model
  8626 ;;
  8627                           
  8628                           
  8629                           ;psect for function _init_digital_keypad
  8630  132F                     _init_digital_keypad:
  8631  132F                     l3751:	
  8632                           ;incstack = 0
  8633                           ; Regs used in _init_digital_keypad: [wreg+status,2]
  8634                           
  8635                           
  8636                           ;digital_keypad.c: 16:     TRISB = TRISB | 0x3F;
  8637  132F  1683               	bsf	3,5	;RP0=1, select bank1
  8638  1330  1303               	bcf	3,6	;RP1=0, select bank1
  8639  1331  0806               	movf	6,w	;volatile
  8640  1332  383F               	iorlw	63
  8641  1333  0086               	movwf	6	;volatile
  8642  1334                     l39:
  8643  1334  0008               	return
  8644  1335                     __end_of_init_digital_keypad:
  8645                           
  8646                           	psect	text24
  8647  1335                     __ptext24:	
  8648 ;; *************** function _init_clcd *****************
  8649 ;; Defined at:
  8650 ;;		line 34 in file "clcd.c"
  8651 ;; Parameters:    Size  Location     Type
  8652 ;;		None
  8653 ;; Auto vars:     Size  Location     Type
  8654 ;;		None
  8655 ;; Return value:  Size  Location     Type
  8656 ;;                  1    wreg      void 
  8657 ;; Registers used:
  8658 ;;		wreg, status,2, status,0, pclath, cstack
  8659 ;; Tracked objects:
  8660 ;;		On entry : 0/0
  8661 ;;		On exit  : 0/0
  8662 ;;		Unchanged: 0/0
  8663 ;; Data sizes:     COMMON   BANK0   BANK1   BANK3   BANK2
  8664 ;;      Params:         0       0       0       0       0
  8665 ;;      Locals:         0       0       0       0       0
  8666 ;;      Temps:          0       0       0       0       0
  8667 ;;      Totals:         0       0       0       0       0
  8668 ;;Total ram usage:        0 bytes
  8669 ;; Hardware stack levels used: 1
  8670 ;; Hardware stack levels required when called: 3
  8671 ;; This function calls:
  8672 ;;		_init_display_controller
  8673 ;; This function is called by:
  8674 ;;		_init_config
  8675 ;; This function uses a non-reentrant model
  8676 ;;
  8677                           
  8678                           
  8679                           ;psect for function _init_clcd
  8680  1335                     _init_clcd:
  8681  1335                     l3741:	
  8682                           ;incstack = 0
  8683                           ; Regs used in _init_clcd: [wreg+status,2+status,0+pclath+cstack]
  8684                           
  8685                           
  8686                           ;clcd.c: 37:     TRISD = 0x00;
  8687  1335  1683               	bsf	3,5	;RP0=1, select bank1
  8688  1336  1303               	bcf	3,6	;RP1=0, select bank1
  8689  1337  0188               	clrf	8	;volatile
  8690  1338                     l3743:
  8691                           
  8692                           ;clcd.c: 40:     TRISE2 = 0;
  8693  1338  1109               	bcf	9,2	;volatile
  8694  1339                     l3745:
  8695                           
  8696                           ;clcd.c: 41:     TRISE1 = 0;
  8697  1339  1089               	bcf	9,1	;volatile
  8698  133A                     l3747:
  8699                           
  8700                           ;clcd.c: 43:     init_display_controller();
  8701  133A  160A  118A  24C3  160A  118A  	fcall	_init_display_controller
  8702  133F                     l23:
  8703  133F  0008               	return
  8704  1340                     __end_of_init_clcd:
  8705                           
  8706                           	psect	text25
  8707  14C3                     __ptext25:	
  8708 ;; *************** function _init_display_controller *****************
  8709 ;; Defined at:
  8710 ;;		line 16 in file "clcd.c"
  8711 ;; Parameters:    Size  Location     Type
  8712 ;;		None
  8713 ;; Auto vars:     Size  Location     Type
  8714 ;;		None
  8715 ;; Return value:  Size  Location     Type
  8716 ;;                  1    wreg      void 
  8717 ;; Registers used:
  8718 ;;		wreg, status,2, status,0, pclath, cstack
  8719 ;; Tracked objects:
  8720 ;;		On entry : 0/0
  8721 ;;		On exit  : 0/0
  8722 ;;		Unchanged: 0/0
  8723 ;; Data sizes:     COMMON   BANK0   BANK1   BANK3   BANK2
  8724 ;;      Params:         0       0       0       0       0
  8725 ;;      Locals:         0       0       0       0       0
  8726 ;;      Temps:          0       2       0       0       0
  8727 ;;      Totals:         0       2       0       0       0
  8728 ;;Total ram usage:        2 bytes
  8729 ;; Hardware stack levels used: 1
  8730 ;; Hardware stack levels required when called: 2
  8731 ;; This function calls:
  8732 ;;		_clcd_write
  8733 ;; This function is called by:
  8734 ;;		_init_clcd
  8735 ;; This function uses a non-reentrant model
  8736 ;;
  8737                           
  8738                           
  8739                           ;psect for function _init_display_controller
  8740  14C3                     _init_display_controller:
  8741  14C3                     l3503:	
  8742                           ;incstack = 0
  8743                           ; Regs used in _init_display_controller: [wreg+status,2+status,0+pclath+cstack]
  8744                           
  8745                           
  8746                           ;clcd.c: 19:     _delay((unsigned long)((30)*(20000000/4000.0)));
  8747  14C3  30C3               	movlw	195
  8748  14C4  1283               	bcf	3,5	;RP0=0, select bank0
  8749  14C5  1303               	bcf	3,6	;RP1=0, select bank0
  8750  14C6  00A1               	movwf	??_init_display_controller+1
  8751  14C7  30CC               	movlw	204
  8752  14C8  00A0               	movwf	??_init_display_controller
  8753  14C9                     u5857:
  8754  14C9  0BA0               	decfsz	??_init_display_controller,f
  8755  14CA  2CC9               	goto	u5857
  8756  14CB  0BA1               	decfsz	??_init_display_controller+1,f
  8757  14CC  2CC9               	goto	u5857
  8758  14CD  0000               	nop
  8759  14CE                     l3505:
  8760                           
  8761                           ;clcd.c: 22:     clcd_write(0x33, 0);
  8762  14CE  01F3               	clrf	clcd_write@mode
  8763  14CF  3033               	movlw	51
  8764  14D0  160A  118A  239A  160A  118A  	fcall	_clcd_write
  8765  14D5                     l3507:
  8766                           
  8767                           ;clcd.c: 23:     _delay((unsigned long)((4100)*(20000000/4000000.0)));
  8768  14D5  301B               	movlw	27
  8769  14D6  1283               	bcf	3,5	;RP0=0, select bank0
  8770  14D7  1303               	bcf	3,6	;RP1=0, select bank0
  8771  14D8  00A1               	movwf	??_init_display_controller+1
  8772  14D9  309D               	movlw	157
  8773  14DA  00A0               	movwf	??_init_display_controller
  8774  14DB                     u5867:
  8775  14DB  0BA0               	decfsz	??_init_display_controller,f
  8776  14DC  2CDB               	goto	u5867
  8777  14DD  0BA1               	decfsz	??_init_display_controller+1,f
  8778  14DE  2CDB               	goto	u5867
  8779  14DF  2CE0               	nop2
  8780                           
  8781                           ;clcd.c: 24:     clcd_write(0x33, 0);
  8782  14E0  01F3               	clrf	clcd_write@mode
  8783  14E1  3033               	movlw	51
  8784  14E2  160A  118A  239A  160A  118A  	fcall	_clcd_write
  8785  14E7                     l3509:
  8786                           
  8787                           ;clcd.c: 25:      _delay((unsigned long)((100)*(20000000/4000000.0)));
  8788  14E7  30A5               	movlw	165
  8789  14E8  1283               	bcf	3,5	;RP0=0, select bank0
  8790  14E9  1303               	bcf	3,6	;RP1=0, select bank0
  8791  14EA  00A0               	movwf	??_init_display_controller
  8792  14EB                     u5877:
  8793  14EB  0BA0               	decfsz	??_init_display_controller,f
  8794  14EC  2CEB               	goto	u5877
  8795  14ED  2CEE               	nop2
  8796  14EE                     l3511:
  8797                           
  8798                           ;clcd.c: 26:     clcd_write(0x33, 0);
  8799  14EE  01F3               	clrf	clcd_write@mode
  8800  14EF  3033               	movlw	51
  8801  14F0  160A  118A  239A  160A  118A  	fcall	_clcd_write
  8802  14F5                     l3513:
  8803                           
  8804                           ;clcd.c: 27:     _delay((unsigned long)((1)*(20000000/4000000.0)));
  8805  14F5  2CF6               	nop2	;2 cycle nop
  8806  14F6  2CF7               	nop2	;2 cycle nop
  8807  14F7  0000               	nop
  8808  14F8                     l3515:
  8809                           
  8810                           ;clcd.c: 28:    clcd_write(0x01, 0);
  8811  14F8  01F3               	clrf	clcd_write@mode
  8812  14F9  3001               	movlw	1
  8813  14FA  160A  118A  239A  160A  118A  	fcall	_clcd_write
  8814  14FF                     l3517:
  8815                           
  8816                           ;clcd.c: 29:     _delay((unsigned long)((100)*(20000000/4000000.0)));
  8817  14FF  30A5               	movlw	165
  8818  1500  1283               	bcf	3,5	;RP0=0, select bank0
  8819  1501  1303               	bcf	3,6	;RP1=0, select bank0
  8820  1502  00A0               	movwf	??_init_display_controller
  8821  1503                     u5887:
  8822  1503  0BA0               	decfsz	??_init_display_controller,f
  8823  1504  2D03               	goto	u5887
  8824  1505  2D06               	nop2
  8825                           
  8826                           ;clcd.c: 30:     clcd_write(0x0C, 0);
  8827  1506  01F3               	clrf	clcd_write@mode
  8828  1507  300C               	movlw	12
  8829  1508  160A  118A  239A  160A  118A  	fcall	_clcd_write
  8830  150D                     l3519:
  8831                           
  8832                           ;clcd.c: 31:     _delay((unsigned long)((100)*(20000000/4000000.0)));
  8833  150D  30A5               	movlw	165
  8834  150E  1283               	bcf	3,5	;RP0=0, select bank0
  8835  150F  1303               	bcf	3,6	;RP1=0, select bank0
  8836  1510  00A0               	movwf	??_init_display_controller
  8837  1511                     u5897:
  8838  1511  0BA0               	decfsz	??_init_display_controller,f
  8839  1512  2D11               	goto	u5897
  8840  1513  2D14               	nop2
  8841  1514                     l20:
  8842  1514  0008               	return
  8843  1515                     __end_of_init_display_controller:
  8844                           
  8845                           	psect	text26
  8846  139A                     __ptext26:	
  8847 ;; *************** function _clcd_write *****************
  8848 ;; Defined at:
  8849 ;;		line 4 in file "clcd.c"
  8850 ;; Parameters:    Size  Location     Type
  8851 ;;  byte            1    wreg     unsigned char 
  8852 ;;  mode            1    3[COMMON] unsigned char 
  8853 ;; Auto vars:     Size  Location     Type
  8854 ;;  byte            1    6[COMMON] unsigned char 
  8855 ;; Return value:  Size  Location     Type
  8856 ;;                  1    wreg      void 
  8857 ;; Registers used:
  8858 ;;		wreg
  8859 ;; Tracked objects:
  8860 ;;		On entry : 0/0
  8861 ;;		On exit  : 0/0
  8862 ;;		Unchanged: 0/0
  8863 ;; Data sizes:     COMMON   BANK0   BANK1   BANK3   BANK2
  8864 ;;      Params:         1       0       0       0       0
  8865 ;;      Locals:         1       0       0       0       0
  8866 ;;      Temps:          2       0       0       0       0
  8867 ;;      Totals:         4       0       0       0       0
  8868 ;;Total ram usage:        4 bytes
  8869 ;; Hardware stack levels used: 1
  8870 ;; Hardware stack levels required when called: 1
  8871 ;; This function calls:
  8872 ;;		Nothing
  8873 ;; This function is called by:
  8874 ;;		_init_display_controller
  8875 ;;		_clcd_putch
  8876 ;;		_clcd_print
  8877 ;;		_clear_screen
  8878 ;; This function uses a non-reentrant model
  8879 ;;
  8880                           
  8881                           
  8882                           ;psect for function _clcd_write
  8883  139A                     _clcd_write:
  8884                           
  8885                           ;incstack = 0
  8886                           ; Regs used in _clcd_write: [wreg]
  8887                           ;clcd_write@byte stored from wreg
  8888  139A  00F6               	movwf	clcd_write@byte
  8889  139B                     l3495:
  8890                           
  8891                           ;clcd.c: 4:  void clcd_write(unsigned char byte, unsigned char mode);clcd.c: 5: {;clcd.c
      +                          : 6:     RE2 = mode;
  8892  139B  1873               	btfsc	clcd_write@mode,0
  8893  139C  2B9E               	goto	u3911
  8894  139D  2BA2               	goto	u3910
  8895  139E                     u3911:
  8896  139E  1283               	bcf	3,5	;RP0=0, select bank0
  8897  139F  1303               	bcf	3,6	;RP1=0, select bank0
  8898  13A0  1509               	bsf	9,2	;volatile
  8899  13A1  2BA5               	goto	u3924
  8900  13A2                     u3910:
  8901  13A2  1283               	bcf	3,5	;RP0=0, select bank0
  8902  13A3  1303               	bcf	3,6	;RP1=0, select bank0
  8903  13A4  1109               	bcf	9,2	;volatile
  8904  13A5                     u3924:
  8905  13A5                     l3497:
  8906                           
  8907                           ;clcd.c: 7:     PORTD = byte;
  8908  13A5  0876               	movf	clcd_write@byte,w
  8909  13A6  0088               	movwf	8	;volatile
  8910  13A7                     l3499:
  8911                           
  8912                           ;clcd.c: 9:     RE1 = 1;
  8913  13A7  1489               	bsf	9,1	;volatile
  8914                           
  8915                           ;clcd.c: 10:     _delay((unsigned long)((100)*(20000000/4000000.0)));
  8916  13A8  30A6               	movlw	166
  8917  13A9  00F4               	movwf	??_clcd_write
  8918  13AA                     u5907:
  8919  13AA  0BF4               	decfsz	??_clcd_write,f
  8920  13AB  2BAA               	goto	u5907
  8921  13AC  0000               	nop
  8922  13AD                     l3501:
  8923                           
  8924                           ;clcd.c: 11:     RE1 = 0;
  8925  13AD  1283               	bcf	3,5	;RP0=0, select bank0
  8926  13AE  1303               	bcf	3,6	;RP1=0, select bank0
  8927  13AF  1089               	bcf	9,1	;volatile
  8928                           
  8929                           ;clcd.c: 13:     _delay((unsigned long)((4100)*(20000000/4000000.0)));
  8930  13B0  301B               	movlw	27
  8931  13B1  00F5               	movwf	??_clcd_write+1
  8932  13B2  309E               	movlw	158
  8933  13B3  00F4               	movwf	??_clcd_write
  8934  13B4                     u5917:
  8935  13B4  0BF4               	decfsz	??_clcd_write,f
  8936  13B5  2BB4               	goto	u5917
  8937  13B6  0BF5               	decfsz	??_clcd_write+1,f
  8938  13B7  2BB4               	goto	u5917
  8939  13B8  0000               	nop
  8940  13B9                     l17:
  8941  13B9  0008               	return
  8942  13BA                     __end_of_clcd_write:
  8943                           
  8944                           	psect	text27
  8945  1487                     __ptext27:	
  8946 ;; *************** function _isr *****************
  8947 ;; Defined at:
  8948 ;;		line 4 in file "isr.c"
  8949 ;; Parameters:    Size  Location     Type
  8950 ;;		None
  8951 ;; Auto vars:     Size  Location     Type
  8952 ;;		None
  8953 ;; Return value:  Size  Location     Type
  8954 ;;                  1    wreg      void 
  8955 ;; Registers used:
  8956 ;;		wreg, status,2, status,0
  8957 ;; Tracked objects:
  8958 ;;		On entry : 0/0
  8959 ;;		On exit  : 0/0
  8960 ;;		Unchanged: 0/0
  8961 ;; Data sizes:     COMMON   BANK0   BANK1   BANK3   BANK2
  8962 ;;      Params:         0       0       0       0       0
  8963 ;;      Locals:         0       0       0       0       0
  8964 ;;      Temps:          3       0       0       0       0
  8965 ;;      Totals:         3       0       0       0       0
  8966 ;;Total ram usage:        3 bytes
  8967 ;; Hardware stack levels used: 1
  8968 ;; This function calls:
  8969 ;;		Nothing
  8970 ;; This function is called by:
  8971 ;;		Interrupt level 1
  8972 ;; This function uses a non-reentrant model
  8973 ;;
  8974                           
  8975                           
  8976                           ;psect for function _isr
  8977  1487                     _isr:
  8978  1487                     i1l3301:
  8979                           
  8980                           ;isr.c: 6:     static unsigned int count = 0;;isr.c: 8:     if (TMR2IF == 1)
  8981  1487  1283               	bcf	3,5	;RP0=0, select bank0
  8982  1488  1303               	bcf	3,6	;RP1=0, select bank0
  8983  1489  1C8C               	btfss	12,1	;volatile
  8984  148A  2C8C               	goto	u386_21
  8985  148B  2C8D               	goto	u386_20
  8986  148C                     u386_21:
  8987  148C  2CBC               	goto	i1l311
  8988  148D                     u386_20:
  8989  148D                     i1l3303:
  8990                           
  8991                           ;isr.c: 9:     {;isr.c: 10:         if (++count == 1250)
  8992  148D  3001               	movlw	1
  8993  148E  1683               	bsf	3,5	;RP0=1, select bank1
  8994  148F  1303               	bcf	3,6	;RP1=0, select bank1
  8995  1490  07C7               	addwf	isr@count^(0+128),f
  8996  1491  1803               	skipnc
  8997  1492  0AC8               	incf	(isr@count+1)^(0+128),f
  8998  1493  3000               	movlw	0
  8999  1494  07C8               	addwf	(isr@count+1)^(0+128),f
  9000  1495  30E2               	movlw	226
  9001  1496  0647               	xorwf	isr@count^(0+128),w
  9002  1497  3004               	movlw	4
  9003  1498  1903               	skipnz
  9004  1499  0648               	xorwf	(isr@count+1)^(0+128),w
  9005  149A  1D03               	btfss	3,2
  9006  149B  2C9D               	goto	u387_21
  9007  149C  2C9E               	goto	u387_20
  9008  149D                     u387_21:
  9009  149D  2CBA               	goto	i1l3319
  9010  149E                     u387_20:
  9011  149E                     i1l3305:
  9012                           
  9013                           ;isr.c: 11:         {;isr.c: 12:             count = 0;
  9014  149E  01C7               	clrf	isr@count^(0+128)
  9015  149F  01C8               	clrf	(isr@count+1)^(0+128)
  9016  14A0                     i1l3307:
  9017                           
  9018                           ;isr.c: 13:             if(sec > 0)
  9019  14A0  0878               	movf	_sec,w
  9020  14A1  1903               	btfsc	3,2
  9021  14A2  2CA4               	goto	u388_21
  9022  14A3  2CA5               	goto	u388_20
  9023  14A4                     u388_21:
  9024  14A4  2CA8               	goto	i1l3311
  9025  14A5                     u388_20:
  9026  14A5                     i1l3309:
  9027                           
  9028                           ;isr.c: 14:             {;isr.c: 15:                 sec--;
  9029  14A5  3001               	movlw	1
  9030  14A6  02F8               	subwf	_sec,f
  9031                           
  9032                           ;isr.c: 16:             }
  9033  14A7  2CBA               	goto	i1l3319
  9034  14A8                     i1l3311:
  9035  14A8  0878               	movf	_sec,w
  9036  14A9  1D03               	btfss	3,2
  9037  14AA  2CAC               	goto	u389_21
  9038  14AB  2CAD               	goto	u389_20
  9039  14AC                     u389_21:
  9040  14AC  2CBA               	goto	i1l3319
  9041  14AD                     u389_20:
  9042  14AD                     i1l3313:
  9043  14AD  1283               	bcf	3,5	;RP0=0, select bank0
  9044  14AE  1303               	bcf	3,6	;RP1=0, select bank0
  9045  14AF  086A               	movf	_min,w
  9046  14B0  1903               	btfsc	3,2
  9047  14B1  2CB3               	goto	u390_21
  9048  14B2  2CB4               	goto	u390_20
  9049  14B3                     u390_21:
  9050  14B3  2CBA               	goto	i1l3319
  9051  14B4                     u390_20:
  9052  14B4                     i1l3315:
  9053                           
  9054                           ;isr.c: 18:             {;isr.c: 19:                 min--;
  9055  14B4  3001               	movlw	1
  9056  14B5  02EA               	subwf	_min,f
  9057  14B6                     i1l3317:
  9058                           
  9059                           ;isr.c: 20:                 sec = 59;
  9060  14B6  303B               	movlw	59
  9061  14B7  00F0               	movwf	??_isr
  9062  14B8  0870               	movf	??_isr,w
  9063  14B9  00F8               	movwf	_sec
  9064  14BA                     i1l3319:
  9065                           
  9066                           ;isr.c: 23:         TMR2IF = 0;
  9067  14BA  1283               	bcf	3,5	;RP0=0, select bank0
  9068  14BB  108C               	bcf	12,1	;volatile
  9069  14BC                     i1l311:
  9070  14BC  0872               	movf	??_isr+2,w
  9071  14BD  008A               	movwf	10
  9072  14BE  0E71               	swapf	??_isr+1,w
  9073  14BF  0083               	movwf	3
  9074  14C0  0EFE               	swapf	btemp,f
  9075  14C1  0E7E               	swapf	btemp,w
  9076  14C2  0009               	retfie
  9077  14C3                     __end_of_isr:
  9078  007E                     btemp	set	126	;btemp
  9079  007E                     wtemp0	set	126
  9080                           
  9081                           	psect	intentry
  9082  0004                     __pintentry:	
  9083                           ;incstack = 0
  9084                           ; Regs used in _isr: [wreg+status,2+status,0]
  9085                           
  9086  0004                     interrupt_function:
  9087  007E                     saved_w	set	btemp
  9088  0004  00FE               	movwf	btemp
  9089  0005  0E03               	swapf	3,w
  9090  0006  00F1               	movwf	??_isr+1
  9091  0007  080A               	movf	10,w
  9092  0008  00F2               	movwf	??_isr+2
  9093  0009  160A  118A  2C87   	ljmp	_isr
  9094                           
  9095                           	psect	config
  9096                           
  9097                           ;Config register CONFIG @ 0x2007
  9098                           ;	Oscillator Selection bits
  9099                           ;	FOSC = 0x3, unprogrammed default
  9100                           ;	Watchdog Timer Enable bit
  9101                           ;	WDTE = OFF, WDT disabled
  9102                           ;	Power-up Timer Enable bit
  9103                           ;	PWRTE = 0x1, unprogrammed default
  9104                           ;	Brown-out Reset Enable bit
  9105                           ;	BOREN = 0x1, unprogrammed default
  9106                           ;	Low-Voltage (Single-Supply) In-Circuit Serial Programming Enable bit
  9107                           ;	LVP = 0x1, unprogrammed default
  9108                           ;	Data EEPROM Memory Code Protection bit
  9109                           ;	CPD = 0x1, unprogrammed default
  9110                           ;	Flash Program Memory Write Enable bits
  9111                           ;	WRT = 0x3, unprogrammed default
  9112                           ;	In-Circuit Debugger Mode bit
  9113                           ;	DEBUG = 0x1, unprogrammed default
  9114                           ;	Flash Program Memory Code Protection bit
  9115                           ;	CP = 0x1, unprogrammed default
  9116  2007                     	org	8199
  9117  2007  3FFB               	dw	16379

Data Sizes:
    Strings     416
    Constant    0
    Data        35
    BSS         18
    Persistent  2
    Stack       0

Auto Spaces:
    Space          Size  Autos    Used
    COMMON           14      8      11
    BANK0            80     66      79
    BANK1            80      5      44
    BANK3            96      0       0
    BANK2            96      0       0

Pointer List with Targets:

    water_level_arr	PTR unsigned char [5] size(2) Largest target is 7
		 -> STR_17(CODE[4]), STR_16(CODE[5]), STR_15(CODE[7]), STR_14(CODE[4]), 
		 -> STR_13(CODE[5]), 

    washing_prog	PTR unsigned char [12] size(2) Largest target is 12
		 -> STR_12(CODE[10]), STR_11(CODE[10]), STR_10(CODE[9]), STR_9(CODE[10]), 
		 -> STR_8(CODE[11]), STR_7(CODE[9]), STR_6(CODE[12]), STR_5(CODE[10]), 
		 -> STR_4(CODE[7]), STR_3(CODE[10]), STR_2(CODE[6]), STR_1(CODE[8]), 

    clcd_print@str	PTR const unsigned char  size(2) Largest target is 17
		 -> STR_47(CODE[14]), STR_46(CODE[16]), STR_45(CODE[5]), STR_44(CODE[6]), 
		 -> STR_43(CODE[6]), STR_42(CODE[6]), STR_41(CODE[6]), STR_40(CODE[6]), 
		 -> STR_39(CODE[5]), STR_38(CODE[17]), STR_37(CODE[5]), STR_36(CODE[11]), 
		 -> STR_35(CODE[8]), STR_34(CODE[6]), STR_33(CODE[7]), STR_32(CODE[17]), 
		 -> STR_31(CODE[5]), STR_30(CODE[11]), STR_29(CODE[13]), STR_28(CODE[12]), 
		 -> STR_27(CODE[13]), STR_26(CODE[17]), STR_25(CODE[17]), STR_24(CODE[17]), 
		 -> STR_23(CODE[12]), STR_22(CODE[13]), STR_21(CODE[13]), STR_20(CODE[17]), 
		 -> STR_19(CODE[17]), STR_18(CODE[17]), STR_17(CODE[4]), STR_16(CODE[5]), 
		 -> STR_15(CODE[7]), STR_14(CODE[4]), STR_13(CODE[5]), STR_12(CODE[10]), 
		 -> STR_11(CODE[10]), STR_10(CODE[9]), STR_9(CODE[10]), STR_8(CODE[11]), 
		 -> STR_7(CODE[9]), STR_6(CODE[12]), STR_5(CODE[10]), STR_4(CODE[7]), 
		 -> STR_3(CODE[10]), STR_2(CODE[6]), STR_1(CODE[8]), 


Critical Paths under _main in COMMON

    _main->_clear_screen
    _water_level_display->_clear_screen
    _washing_programs_display->_clear_screen
    _run_program->___awdiv
    _run_program->___awmod
    _run_program->_clear_screen
    _door_status_check->_clear_screen
    _clear_screen->_clcd_write
    ___fltol->___xxtofl
    ___flsub->___fladd
    ___flsub->___xxtofl
    ___flmul->__Umul8_16
    ___flmul->___xxtofl
    ___flge->___xxtofl
    _clcd_putch->___awdiv
    _clcd_putch->___awmod
    _clcd_print->_clcd_write
    _init_display_controller->_clcd_write

Critical Paths under _isr in COMMON

    None.

Critical Paths under _main in BANK0

    _main->_run_program
    _water_level_display->_clcd_putch
    _washing_programs_display->_clcd_putch
    _run_program->___flge
    _door_status_check->_clcd_print
    ___fltol->___flmul
    ___flsub->___flmul
    ___flmul->___xxtofl
    ___flge->___flsub
    _power_on_screen->_clcd_putch
    _clcd_putch->___awdiv
    _init_clcd->_init_display_controller

Critical Paths under _isr in BANK0

    None.

Critical Paths under _main in BANK1

    None.

Critical Paths under _isr in BANK1

    None.

Critical Paths under _main in BANK3

    None.

Critical Paths under _isr in BANK3

    None.

Critical Paths under _main in BANK2

    None.

Critical Paths under _isr in BANK2

    None.

Call Graph Tables:

 ---------------------------------------------------------------------------------
 (Depth) Function   	        Calls       Base Space   Used Autos Params    Refs
 ---------------------------------------------------------------------------------
 (0) _main                                                 8     8      0   88033
                                             64 BANK0      2     2      0
                                              0 BANK1      5     5      0
                         _clcd_print
                       _clear_screen
                        _init_config
                    _power_on_screen
                _read_digital_keypad
                        _run_program
               _set_time_for_program
           _washing_programs_display
                _water_level_display
 ---------------------------------------------------------------------------------
 (1) _water_level_display                                  4     4      0   13155
                                              6 BANK0      4     4      0
                         _clcd_print
                         _clcd_putch
                       _clear_screen
 ---------------------------------------------------------------------------------
 (1) _washing_programs_display                             4     4      0   13155
                                              6 BANK0      4     4      0
                         _clcd_print
                         _clcd_putch
                       _clear_screen
 ---------------------------------------------------------------------------------
 (1) _set_time_for_program                                 2     2      0       0
                                              3 COMMON     2     2      0
 ---------------------------------------------------------------------------------
 (1) _run_program                                          8     8      0   37208
                                             56 BANK0      8     8      0
                            ___awdiv
                            ___awmod
                             ___flge
                            ___flmul
                            ___flsub
                            ___fltol
                             ___wmul
                           ___xxtofl
                         _clcd_print
                         _clcd_putch
                       _clear_screen
                  _door_status_check
 ---------------------------------------------------------------------------------
 (2) _door_status_check                                    1     1      0   10840
                                              3 BANK0      1     1      0
                         _clcd_print
                       _clear_screen
 ---------------------------------------------------------------------------------
 (2) _clear_screen                                         1     1      0     962
                                              7 COMMON     1     1      0
                         _clcd_write
 ---------------------------------------------------------------------------------
 (2) ___xxtofl                                            14    10      4     926
                                              3 COMMON     4     0      4
                                              0 BANK0     10    10      0
 ---------------------------------------------------------------------------------
 (2) ___wmul                                               6     2      4    1926
                                              3 COMMON     4     0      4
                                              0 BANK0      2     2      0
 ---------------------------------------------------------------------------------
 (2) ___fltol                                             11     7      4     517
                                             36 BANK0     11     7      4
                            ___flmul (ARG)
                           ___xxtofl (ARG)
 ---------------------------------------------------------------------------------
 (2) ___flsub                                              8     0      8    3367
                                             36 BANK0      8     0      8
                            ___fladd
                            ___flmul (ARG)
                           ___xxtofl (ARG)
 ---------------------------------------------------------------------------------
 (3) ___fladd                                             20    12      8    3122
                                              3 COMMON     4     4      0
                                              0 BANK0     16     8      8
 ---------------------------------------------------------------------------------
 (2) ___flmul                                             26    18      8    3713
                                             10 BANK0     26    18      8
                          __Umul8_16
                           ___xxtofl (ARG)
 ---------------------------------------------------------------------------------
 (3) __Umul8_16                                            9     7      2     980
                                              3 COMMON     4     2      2
                                              0 BANK0      5     5      0
 ---------------------------------------------------------------------------------
 (2) ___flge                                              12     4      8     446
                                             44 BANK0     12     4      8
                            ___flmul (ARG)
                            ___flsub (ARG)
                           ___xxtofl (ARG)
 ---------------------------------------------------------------------------------
 (2) ___awmod                                              7     3      4    1153
                                              3 COMMON     5     1      4
                                              0 BANK0      2     2      0
 ---------------------------------------------------------------------------------
 (2) ___awdiv                                              9     5      4    1165
                                              3 COMMON     5     1      4
                                              0 BANK0      4     4      0
 ---------------------------------------------------------------------------------
 (1) _read_digital_keypad                                  2     2      0      31
                                              3 COMMON     2     2      0
 ---------------------------------------------------------------------------------
 (1) _power_on_screen                                      5     5      0   12360
                                              6 BANK0      5     5      0
                         _clcd_print
                         _clcd_putch
 ---------------------------------------------------------------------------------
 (2) _clcd_putch                                           2     1      1    2284
                                              4 BANK0      2     1      1
                            ___awdiv (ARG)
                            ___awmod (ARG)
                         _clcd_write
 ---------------------------------------------------------------------------------
 (2) _clcd_print                                           3     0      3    9878
                                              0 BANK0      3     0      3
                         _clcd_write
 ---------------------------------------------------------------------------------
 (1) _init_config                                          0     0      0     962
                          _init_clcd
                _init_digital_keypad
                        _init_timer2
 ---------------------------------------------------------------------------------
 (2) _init_timer2                                          0     0      0       0
 ---------------------------------------------------------------------------------
 (2) _init_digital_keypad                                  0     0      0       0
 ---------------------------------------------------------------------------------
 (2) _init_clcd                                            0     0      0     962
            _init_display_controller
 ---------------------------------------------------------------------------------
 (3) _init_display_controller                              2     2      0     962
                                              0 BANK0      2     2      0
                         _clcd_write
 ---------------------------------------------------------------------------------
 (3) _clcd_write                                           4     3      1     962
                                              3 COMMON     4     3      1
 ---------------------------------------------------------------------------------
 Estimated maximum stack depth 3
 ---------------------------------------------------------------------------------
 (Depth) Function   	        Calls       Base Space   Used Autos Params    Refs
 ---------------------------------------------------------------------------------
 (5) _isr                                                  3     3      0       0
                                              0 COMMON     3     3      0
 ---------------------------------------------------------------------------------
 Estimated maximum stack depth 5
 ---------------------------------------------------------------------------------

 Call Graph Graphs:

 _main (ROOT)
   _clcd_print
     _clcd_write
   _clear_screen
     _clcd_write
   _init_config
     _init_clcd
       _init_display_controller
         _clcd_write
     _init_digital_keypad
     _init_timer2
   _power_on_screen
     _clcd_print
     _clcd_putch
       ___awdiv (ARG)
       ___awmod (ARG)
       _clcd_write (ARG)
   _read_digital_keypad
   _run_program
     ___awdiv
     ___awmod
     ___flge
       ___flmul (ARG)
         __Umul8_16
         ___xxtofl (ARG)
       ___flsub (ARG)
         ___fladd
         ___flmul (ARG)
         ___xxtofl (ARG)
       ___xxtofl (ARG)
     ___flmul
     ___flsub
     ___fltol
       ___flmul (ARG)
       ___xxtofl (ARG)
     ___wmul
     ___xxtofl
     _clcd_print
     _clcd_putch
     _clear_screen
     _door_status_check
       _clcd_print
       _clear_screen
   _set_time_for_program
   _washing_programs_display
     _clcd_print
     _clcd_putch
     _clear_screen
   _water_level_display
     _clcd_print
     _clcd_putch
     _clear_screen

 _isr (ROOT)

 Address spaces:
Name               Size   Autos  Total    Cost      Usage
BANK3               60      0       0       9        0.0%
BITBANK3            60      0       0       8        0.0%
SFR3                 0      0       0       4        0.0%
BITSFR3              0      0       0       4        0.0%
BANK2               60      0       0      11        0.0%
BITBANK2            60      0       0      10        0.0%
SFR2                 0      0       0       5        0.0%
BITSFR2              0      0       0       5        0.0%
BANK1               50      5      2C       7       55.0%
BITBANK1            50      0       0       6        0.0%
SFR1                 0      0       0       2        0.0%
BITSFR1              0      0       0       2        0.0%
BANK0               50     42      4F       5       98.8%
BITBANK0            50      0       0       4        0.0%
SFR0                 0      0       0       1        0.0%
BITSFR0              0      0       0       1        0.0%
COMMON               E      8       B       1       78.6%
BITCOMMON            E      0       0       0        0.0%
CODE                 0      0       0       0        0.0%
DATA                 0      0      86      12        0.0%
ABS                  0      0      86       3        0.0%
NULL                 0      0       0       0        0.0%
STACK                0      0       0       2        0.0%
EEDATA             100      0       0       0        0.0%


Microchip Technology PIC Macro Assembler V2.32 build 20210201212658 
Symbol Table                                                                                   Sun Oct 24 15:56:16 2021

                                pc 0002                     clcd_print@addr 0022  
 __size_of_init_display_controller 0052                                 l20 1514  
                               l23 133F                                 l32 1486  
                               l17 13B9                                 l26 1381  
                               l54 07F9                                 l39 1334  
                               l49 07FA                       ___awdiv@sign 0021  
                               fsr 0004                ___wmul@multiplicand 0075  
           water_level_display@key 0029                __Umul8_16@word_mpld 0022  
                              l223 0B50                                l129 1399  
                              l145 0D16                                l170 15CE  
                              l163 1359                                l251 0C0B  
                              l181 09A0                                l238 0B8F  
                              l255 15FB                                l280 0438  
                              l192 0AC2                                l258 1636  
                              l293 134C                                l550 169F  
                              l711 0F4D                                l703 0FFF  
                              l721 0F93                                l563 156F  
                              l571 16BE                                l715 0F71  
                              l732 0FF3                                l724 0FD1  
                              l805 1416                                l733 0FFF  
                              l397 1439                                l574 172A  
                              l590 0869                                l830 1768  
                              l575 1743                                l807 1428  
                              l583 087E                                l399 1453  
                              l736 13FF                                l832 17FF  
                              l593 087E                                l690 0DD3  
                              l843 17C9                                l844 17D5  
                              l836 17AD                                l694 0E7C  
                              l792 0705                                l696 0E51  
                              l786 0799                                l798 078D  
                              _GIE 005F                                _RB0 0030  
                              _RC1 0039                                _RC2 003A  
                              _RE1 0049                                _RE2 004A  
                              _PR2 0092               _set_time_for_program 0AC3  
                              _min 006A                                _sec 0078  
                              _isr 1487                     clcd_putch@addr 0024  
                              fsr0 0004                     clcd_putch@data 0025  
                              indf 0000                       ___awmod@sign 0021  
     read_digital_keypad@longpress 006B                       ___flmul@aexp 0038  
                     ___flmul@bexp 003D                       ___flmul@sign 0037  
                     ___flmul@temp 0042                       ___flmul@prod 003E  
      washing_programs_display@key 0029                        _run_program 003D  
                     ___fltol@exp1 004E                               l4001 0560  
            ??_read_digital_keypad 0073                               l4011 05C3  
                             l4003 0569                               l4021 0663  
                             l4013 05DC                               l4005 0579  
                             l4101 1792                               l4031 06D1  
                             l4023 0689                               l4015 05F9  
                             l4007 0596                               l4111 17C3  
                             l4103 1796                               l4201 158A  
                             l4041 06E9                               l4033 06D5  
                             l4025 06B1                               l4017 0626  
                             l4009 05A6                               l4121 17F6  
                             l4113 17CD                               l4105 17A4  
                             l4211 15B4                               l4203 15A6  
                             l4051 070A                               l4043 06EA  
                             l4035 06D6                               l4027 06BA  
                             l4019 0636                               l4123 17F7  
                             l4115 17D7                               l4107 17B4  
                             l3501 13AD                               l4213 15BA  
                             l4141 07B7                               l4053 070F  
                             l4061 0740                               l4045 06EE  
                             l4037 06DF                               l4029 06C8  
                             l4117 17ED                               l4109 17BF  
                             l4221 0AC8                               l3511 14EE  
                             l3503 14C3                               l4215 15C0  
                             l4151 07D4                               l4143 07BD  
                             l4135 07A5                               l4127 079B  
                             l4071 0773                               l4063 074D  
                             l4055 071D                               l4047 0702  
                             l4039 06E5                               l4119 17F2  
                             l4231 0AD6                               l4223 0ACC  
                             l4303 0BDD                               l3513 14F5  
                             l3505 14CE                               l3521 1454  
                             l4209 15A9                               l4153 07DA  
                             l4161 07E1                               l4145 07C2  
                             l4137 07B0                               l4129 07A0  
                             l4073 0781                               l4065 0758  
                             l4057 0721                               l3601 0E09  
                             l4401 0061                               l4233 0AEF  
                             l4217 0AC3                               l3515 14F8  
                             l3507 14D5                               l3523 145E  
                             l4163 07EA                               l4155 07DE  
                             l4147 07C9                               l4139 07B5  
                             l4075 0785                               l4067 0767  
                             l4059 073A                               l3603 0E0D  
                             l3611 0E1D                               l4091 1770  
                             l4083 1747                               l3531 1354  
                             l4411 00CD                               l4403 0078  
                             l4243 0B03                               l4235 0AF3  
                             l4227 0AD1                               l4219 0AC4  
                             l3517 14FF                               l3509 14E7  
                             l4181 1392                               l3525 146E  
                             l4165 07EF                               l4149 07CF  
                             l4173 07F9                               l4077 0786  
                             l4069 0771                               l3701 0F9D  
                             l3621 0E62                               l3613 0E1E  
                             l3605 0E11                               l3541 0D82  
                             l3533 0D70                               l4085 174C  
                             l4421 0138                               l4413 00EA  
                             l4405 0087                               l4261 0B4C  
                             l4253 0B26                               l4245 0B1C  
                             l4237 0AF6                               l4341 0898  
                             l4333 0882                               l4501 0C0C  
                             l3519 150D                               l4183 1393  
                             l3527 1476                               l4167 07F1  
                             l4079 0791                               l3711 0FDB  
                             l3703 0FAB                               l3631 0E80  
                             l3623 0E68                               l3615 0E35  
                             l3607 0E15                               l3543 0D87  
                             l3551 0D97                               l3535 0D77  
                             l4095 1779                               l4087 1750  
                             l4431 01EC                               l4423 0147  
                             l4415 0116                               l4407 00A4  
                             l4271 0B61                               l4255 0B3F  
                             l4239 0AFE                               l4351 08C3  
                             l4343 08A2                               l4335 088A  
                             l4511 0C39                               l4503 0C0C  
                             l4185 1396                               l4177 1382  
                             l4169 07F7                               l3801 163A  
                             l3721 0FEF                               l3713 0FE3  
                             l3705 0FAF                               l3641 0EAD  
                             l3633 0E85                               l3625 0E69  
                             l3617 0E55                               l3609 0E19  
                             l3561 0DB1                               l3553 0D9F  
                             l3545 0D8C                               l3537 0D7D  
                             l4097 177E                               l4089 1760  
                             l3529 134D                               l4441 0216  
                             l4433 0209                               l4425 0156  
                             l4417 0124                               l4409 00C1  
                             l4281 0B8B                               l4273 0B69  
                             l4265 0B55                               l4257 0B43  
                             l4249 0B21                               l4361 095F  
                             l4353 08C9                               l4345 08A3  
                             l4337 088F                               l4521 0C6D  
                             l4513 0C49                               l4505 0C16  
                             l4187 1397                               l4179 1391  
                             l4195 1573                               l3811 164E  
                             l3803 163E                               l3731 140C  
                             l3723 0FFA                               l3715 0FE8  
                             l3707 0FCD                               l3651 0EC1  
                             l3643 0EB1                               l3627 0E72  
                             l3619 0E60                               l3571 0DC8  
                             l3563 0DB5                               l3555 0DA4  
                             l3547 0D94                               l3539 0D81  
                             l4099 178B                               l4451 0260  
                             l4443 021A                               l4435 020C  
                             l4427 0176                               l4419 0129  
                             l4291 0BB9                               l4283 0B8F  
                             l4267 0B5A                               l4259 0B48  
                             l4355 090F                               l4347 08A8  
                             l4339 0890                               l4371 09BA  
                             l4363 09A4                               l4531 0C99  
                             l4523 0C72                               l4515 0C4F  
                             l4507 0C1B                               l3741 1335  
                             l4197 157E                               l4189 1570  
                             l3821 1664                               l3813 1652  
                             l3805 1643                               l3733 1410  
                             l3725 0FFE                               l3717 0FE9  
                             l3709 0FD6                               l3661 0F2B  
                             l3653 0ECA                               l3645 0EBA  
                             l3637 0E90                               l3629 0E76  
                             l3581 0DE1                               l3573 0DC9  
                             l3565 0DB6                               l3557 0DAA  
                             l3549 0D95                               l3901 0803  
                             l4461 0327                               l4453 0287  
                             l4445 0234                               l4429 01B1  
                             l4437 020D                               l4293 0BBC  
                             l4285 0B97                               l4277 0B6E  
                             l4269 0B5E                               l4357 0915  
                             l4349 08B7                               l4381 09E5  
                             l4373 09C4                               l4365 09AC  
                             l4541 0CC1                               l4533 0C9F  
                             l4525 0C7A                               l4517 0C5D  
                             l4509 0C2A                               l3495 139B  
                             l3743 1338                               l3751 132F  
                             l4199 1584                               l3831 1684  
                             l3823 1668                               l3815 1654  
                             l3807 1645                               l3735 141F  
                             l3727 1403                               l3719 0FED  
                             l3663 0F30                               l3647 0EBC  
                             l3639 0EA9                               l3655 0ECF  
                             l3591 0DF5                               l3583 0DE5  
                             l3567 0DBB                               l3575 0DCB  
                             l3559 0DAB                               l3911 082F  
                             l3903 0810                               l4463 0337  
                             l4455 0297                               l4471 0368  
                             l4447 023A                               l4439 0214  
                             l4287 0BB0                               l4279 0B87  
                             l4359 0959                               l4391 0A81  
                             l4383 09EB                               l4375 09C5  
                             l4367 09AD                               l4551 0CF8  
                             l4543 0CC6                               l4535 0CA6  
                             l4527 0C87                               l4519 0C68  
                             l3497 13A5                               l3745 1339  
                             l3753 1340                               l3833 168B  
                             l3825 166C                               l3817 165A  
                             l3809 1649                               l3737 1424  
                             l3729 1405                               l3681 0F78  
                             l3673 0F63                               l3657 0EE7  
                             l3665 0F3F                               l3649 0EC0  
                             l3593 0DF9                               l3585 0DE9  
                             l3577 0DD9                               l3569 0DC0  
                             l3913 0837                               l3761 15CF  
                             l4481 03E8                               l4473 0385  
                             l4465 0347                               l4449 0250  
                             l4457 02A7                               l4393 0040  
                             l4289 0BB5                               l4385 0A31  
                             l4377 09CA                               l4369 09B2  
                             l4561 0D17                               l4545 0CCB  
                             l4553 0CFF                               l4537 0CB1  
                             l4529 0C8B                               l3499 13A7  
                             l3747 133A                               l3755 1344  
                             l3827 167D                               l3819 165D  
                             l3835 1691                               l3851 1523  
                             l3843 1515                               l3691 0F86  
                             l3683 0F7A                               l3675 0F6C  
                             l3667 0F55                               l3659 0F25  
                             l3595 0DFD                               l3587 0DED  
                             l3579 0DDD                               l3931 085E  
                             l3923 0845                               l3915 0839  
                             l3907 0819                               l3771 1601  
                             l3763 15D5                               l4491 040B  
                             l4483 03ED                               l4475 03A2  
                             l4467 034D                               l4459 02AD  
                             l4395 0045                               l4299 0BC4  
                             l4387 0A37                               l4379 09D9  
                             l4571 0D3E                               l4563 0D20  
                             l4555 0D07                               l4547 0CDA  
                             l4539 0CB9                               l3757 1348  
                             l3749 1370                               l3837 1696  
                             l3829 1683                               l3861 153C  
                             l3853 1527                               l3845 1518  
                             l3693 0F8A                               l3685 0F7F  
                             l3677 0F70                               l3669 0F5A  
                             l3597 0E01                               l3589 0DF1  
                             l3933 086E                               l3917 083D  
                             l3925 0857                               l3909 082E  
                             l3781 1618                               l3773 1606  
                             l3765 15D8                               l4493 041A  
                             l4485 03F4                               l4477 03AE  
                             l4469 035B                               l4397 004D  
                             l4389 0A7B                               l4573 0D44  
                             l4565 0D29                               l4557 0D0F  
                             l4549 0CE9                               l4581 0D52  
                             l3759 1349                               l3839 169B  
                             l3871 155B                               l3863 1540  
                             l3855 152C                               l3847 151C  
                             l3951 044B                               l3943 0439  
                             l3695 0F90                               l3679 0F75  
                             l3687 0F81                               l3599 0E05  
                             l3935 0873                               l3791 1440  
                             l3783 1627                               l3775 1609  
                             l3767 15DD                               l4495 0428  
                             l4487 03F7                               l4479 03CB  
                             l4399 0052                               l4567 0D31  
                             l4583 0D69                               l4559 0D11  
                             l3865 1544                               l3857 1532  
                             l3873 1561                               l3849 1521  
                             l3881 16A0                               l3961 0467  
                             l3953 0450                               l3945 0440  
                             l3689 0F85                               l3937 13DC  
                             l3793 1447                               l3785 1429  
                             l3777 160A                               l3769 15EC  
                             l4497 042B                               l4489 03FC  
                             l4761 0D5B                               l4577 0D49  
                             l3875 1566                               l3867 154E  
                             l3859 1535                               l3891 1702  
                             l3883 16B6                               l3971 047C  
                             l3963 046C                               l3955 0455  
                             l3947 0446                               l3699 0F98  
                             l3939 13E0                               l3795 144D  
                             l3787 142D                               l3779 160B  
                             l4499 042D                               l4771 0B9F  
                             l4763 0ADE                               l3877 156B  
                             l3869 1554                               l3893 1706  
                             l3885 16D2                               l3981 0498  
                             l3973 0481                               l3965 0472  
                             l3957 045D                               l3949 044A  
                             l3789 1431                               l4773 0BCC  
                             l4765 0B0B                               l3799 1637  
                             l3895 1740                               l3887 16DA  
                             l3991 04C3                               l3983 049D  
                             l3975 0489                               l3967 0476  
                             l3959 045F                               l4775 0BE5  
                             l4767 0B2E                               l3897 1742  
                             l3889 16DE                               l3993 04E0  
                             l3977 048B                               l3969 0477  
                             l4769 0B76                               l3995 04FC  
                             l3987 04A6                               l3979 0493  
                             ?_isr 0070                               l3997 0528  
                             l3989 04B6                               l3999 0544  
                             STR_1 1147                               STR_2 117E  
                             STR_3 1117                               STR_4 1165  
                             STR_5 110D                               STR_6 10E1  
                             STR_7 1135                               STR_8 10F8  
                             STR_9 112B                               u4000 0DC0  
                             u4001 0DBF                               u4010 0DD9  
                             u4011 0DD8                               u4100 0E80  
                             u4020 0DDD                               u4101 0E7F  
                             u4021 0DDC                               u4110 0E85  
                             u4030 0E35                               u4111 0E84  
                             u4031 0E34                               u4200 0F30  
                             u4040 0E40                               u4201 0F2F  
                             u4121 0E9B                               u4041 0E3E  
                             u4210 0F55                               u4130 0EAD  
                             u4122 0EA2                               u4050 0E41  
                             u5011 05EB                               u4211 0F54  
                             u4131 0EAC                               u4123 0EA9  
                             u4035 0E31                               u5100 06D5  
                             u5012 05F2                               u4300 0F97  
                             u4220 0F5A                               u4140 0EB1  
                             u4060 0E55                               u5101 06D4  
                             u5021 0618                               u5013 05F9  
                             u5005 05C5                               u4301 0F96  
                             u4221 0F59                               u4141 0EB0  
                             u4061 0E54                               u5022 061F  
                             u4310 0F9D                               u4150 0EC0  
                             u4070 0E68                               u5031 0645  
                             u5023 0626                               u4311 0F9C  
                             u4151 0EBF                               u4071 0E67  
                             u4400 1410                               u5200 0767  
                             u5120 06E9                               u5040 066F  
                             u5032 064C                               u4320 0FAF  
                             u4240 0F70                               u4401 140F  
                             u5201 0766                               u5121 06E8  
                             u5033 0653                               u4321 0FAE  
                             u4241 0F6F                               u5210 0785  
                             u5130 06EE                               u4330 0FBE  
                             u4250 0F75                               u4170 0EE7  
                             u4090 0E7C                               u5211 0784  
                             u5131 06ED                               u5115 06D8  
                             u5051 067B                               u4251 0F74  
                             u4235 0F65                               u4171 0EE6  
                             u4091 0E7B                               u4500 1649  
                             u4420 1424                               u5140 0702  
                             u5060 0697                               u5052 0682  
                             u4340 0FCD                               u4260 0F7F  
                             u5300 17C3                               u5220 174C  
                             u4501 1648                               u4421 1423  
                             u5205 0763                               u5141 0701  
                             u5053 0689                               u5045 066A  
                             u4341 0FCC                               u4261 0F7E  
                             u4181 0EFE                               u4173 0EE3  
                             u4165 0EC3                               u4085 0E6B  
                             u5301 17C2                               u5221 174B  
                             u4510 165A                               u5150 0709  
                             u4350 0FD6                               u4270 0F85  
                             u4190 0F12                               u4182 0EFF  
                             u5310 17C9                               u5230 1750  
                             u4430 15D5                               u4511 1659  
                             u4415 1417                               u5151 0708  
                             u5071 06A3                               u4351 0FD5  
                             u4335 0FB9                               u4271 0F84  
                             u4191 0F13                               u4183 0F04  
                             u5311 17C8                               u5231 174F  
                             u4431 15D4                               u5400 07C9  
                             u4600 1527                               u5160 070F  
                             u5072 06AA                               u4360 0FDB  
                             u4280 0F8A                               u4192 0F18  
                             u4184 0F05                               u5320 17CD  
                             u5240 1770                               u4440 1601  
                             u5401 07C8                               u4601 1526  
                             u5161 070E                               u5073 06B1  
                             u5065 0692                               u4361 0FDA  
                             u4281 0F89                               u4193 0F19  
                             u4185 0F0A                               u5321 17CC  
                             u5241 176F                               u4441 1600  
                             u5410 07CF                               u4530 166C  
                             u4610 1532                               u5170 0721  
                             u4370 0FE8                               u4290 0F90  
                             u4186 0F0B                               u4450 1431  
                             u5330 17E2                               u5411 07CE  
                             u4531 166B                               u4611 1531  
                             u5171 0720                               u4371 0FE7  
                             u4291 0F8F                               u4451 1430  
                             _PEIE 005E                               u5420 07DA  
                             u4700 16DE                               u5180 0730  
                             u4380 0FED                               u5340 17F2  
                             u5260 1791                               u5500 08A2  
                             u5421 07D9                               u4525 165E  
                             u4701 16DD                               u5085 06B3  
                             u4381 0FEC                               u5341 17F1  
                             u5261 1790                               u5501 08A1  
                             u3910 13A2                               u5430 07EA  
                             u4550 167D                               u4630 1544  
                             u5190 074D                               u4390 0FFE  
                             u5350 17F6                               u5510 08C9  
                             u3911 139E                               u5431 07E9  
                             u4551 167C                               u4631 1543  
                             u4711 16ED                               u5191 074C  
                             u5095 06CA                               u4391 0FFD  
                             u5351 17F5                               u5335 17DD  
                             u5255 1783                               u5511 08C8  
                             u5440 07EF                               u5360 07A0  
                             u4640 154E                               u4720 1706  
                             u4712 16EE                               u4800 0856  
                             u4480 144D                               u5280 17B3  
                             u5600 004D                               u5520 0915  
                             u5441 07EE                               u5361 079F  
                             u4545 166D                               u4641 154D  
                             u4625 1536                               u4721 1705  
                             u4713 16F3                               u5185 072B  
                             u4801 0855                               u4481 144C  
                             u4465 143A                               u5281 17B2  
                             u5601 004C                               u5521 0914  
                             u3930 1486                               u5450 07F7  
                             u5370 07B0                               u4570 1691  
                             u4490 163E                               u4714 16F4  
                             u4810 085D                               u5610 0214  
                             u5530 095F                               u3931 1485  
                             u5451 07F6                               u5371 07AF  
                             u4571 1690                               u4555 1679  
                             u4491 163D                               u4731 1715  
                             u4715 16F9                               u5195 0749  
                             u4811 085C                               u4475 1441  
                             u5275 17A5                               u5611 0213  
                             u5531 095E                               u3924 13A5  
                             u5460 158A                               u5380 07B5  
                             u4580 1696                               u4660 1561  
                             u4740 1740                               u4732 1716  
                             u4716 16FA                               u4900 0481  
                             u3940 0D81                               u5620 023A  
                             u5540 09AC                               u5700 0C5D  
                             u5461 1589                               u5381 07B4  
                             u4581 1695                               u4565 1685  
                             u4661 1560                               u4645 154A  
                             u4741 173F                               u4733 171B  
                             u4901 0480                               u3941 0D80  
                             u5621 0239                               u5541 09AB  
                             u5701 0C5C                               u5470 15C0  
                             u5390 07C2                               u4670 1566  
                             u4590 151C                               u4734 171C  
                             u4910 0498                               u3950 0D87  
                             u4830 086E                               u4750 0810  
                             u5630 0250                               u5550 09BA  
                             u5710 0C68                               u5471 15BF  
                             u5391 07C1                               u4671 1565  
                             u4655 1555                               u4591 151B  
                             u4735 1721                               u4911 0497  
                             u3951 0D86                               u4831 086D  
                             u4751 080F                               u5295 17B8  
                             u5631 024F                               u5551 09B9  
                             u5711 0C67                               u4736 1722  
                             u4680 16B6                               u4920 049D  
                             u3960 0D8C                               u4840 0873  
                             u4760 0827                               u5640 0287  
                             u5480 088A                               u5560 09C4  
                             u5800 0D44                               u5720 0C99  
                             u4745 173C                               u4681 16B5  
                             u4921 049C                               u3961 0D8B  
                             u4841 0872                               u4825 0860  
                             u5641 0286                               u5481 0889  
                             u5561 09C3                               u5801 0D43  
                             u5721 0C98                               u4690 16D2  
                             u4850 044A                               u3970 0DAA  
                             u4770 083D                               u5650 02AD  
                             u5490 0898                               u5570 09EB  
                             u5730 0C9F                               u4691 16D1  
                             u4931 04EE                               u4851 0449  
                             u3971 0DA9                               u4771 083C  
                             u5651 02AC                               u5635 024C  
                             u5491 0897                               u5571 09EA  
                             u5731 0C9E                               u4932 04F5  
                             u4860 0450                               u3980 0DB5  
                             u4780 0844                               u5660 0327  
                             u5580 0A37                               u5740 0CA6  
                             u4941 050A                               u4933 04FC  
                             u4861 044F                               u3981 0DB4  
                             u4781 0843                               u4765 0822  
                             u5661 0326                               u5645 0283  
                             u5581 0A36                               u5741 0CA5  
                             u4942 0511                               u4870 0455  
                             u3990 0DBB                               u5670 034D  
                             u5590 0A81                               u5750 0CB9  
                             u4951 0536                               u4943 0518  
                             u4871 0454                               u3991 0DBA  
                             u5671 034C                               u5591 0A80  
                             u5751 0CB8                               u4952 053D  
                             u4880 0476                               u5680 03ED  
                             u5760 0CC1                               u4961 0552  
                             u4953 0544                               u4881 0475  
                             u5681 03EC                               u5817 011E  
                             u5761 0CC0                               u4962 0559  
                             u4890 047C                               u5690 03F4  
                             u5770 0D07                               u5907 13AA  
                             u4963 0560                               u4891 047B  
                             u4795 0846                               u5827 0422  
                             u5691 03F3                               u5771 0D06  
                             u5780 0D0F                               u5917 13B4  
                             u4981 0588                               u5837 1356  
                             u5781 0D0E                               u4982 058F  
                             u5790 0D31                               u5847 15C8  
                             u4991 05B5                               u4983 0596  
                             u4975 0562                               u5791 0D30  
                             u4992 05BC                               u5857 14C9  
                             u4993 05C3                               u5867 14DB  
                             u5877 14EB                               u5887 1503  
                             u5897 1511                               _main 0C0C  
                             btemp 007E                               start 000C  
                   clcd_write@byte 0076                     clcd_write@mode 0073  
       __size_of_door_status_check 0068            __end_of_power_on_screen 15CF  
                            ??_isr 0070                      ___fltol@sign1 004D  
                  __end_of___fladd 1000                              ?_main 0070  
                  __end_of___awdiv 16A0                              STR_10 113E  
                            STR_11 1121                              STR_20 1033  
                            STR_12 1103                              STR_21 10BC  
                            STR_13 1193                              STR_30 10ED  
                            STR_22 1095                              STR_14 1198  
                            STR_31 1184                              STR_23 10C9  
                            STR_15 115E                              STR_40 1178  
                            STR_32 1044                              STR_24 1011  
                            STR_16 1189                              STR_41 116C  
                            STR_33 1157                              STR_25 1055  
                            STR_17 119C                              STR_42 1178  
                            STR_34 1172                              STR_26 1066  
                            STR_18 1022                              STR_43 116C  
                            STR_35 114F                              STR_27 10A2  
                            STR_19 1000                              STR_36 10ED  
                            STR_44 1178                              STR_28 10D5  
                  __end_of___awmod 1570                              STR_37 1184  
                            STR_45 118E                              STR_29 10AF  
                            STR_38 1044                              STR_46 1077  
                            STR_39 118E                              STR_47 1087  
                  __end_of___flmul 079A                    __end_of___flsub 1400  
                  __end_of___fltol 087F                    ___awdiv@divisor 0073  
            ?_set_time_for_program 0070                              i1l311 14BC  
                     ?_init_config 0070                    ___awdiv@counter 0020  
                            _PORTB 0006                              _PORTD 0008  
                            _TRISB 0086                              _TRISD 0088  
                     ?_init_timer2 0070               __end_of_clear_screen 135A  
            run_program@total_time 0064                              main@j 00C2  
                            pclath 000A                              status 0003  
                            wtemp0 007E                    __initialization 000F  
                     __end_of_main 0D70                             ??_main 0060  
                   run_program@key 005F                             _ADCON1 009F  
                 ___awdiv@dividend 0075                             i1l3301 1487  
                           i1l3311 14A8                             i1l3303 148D  
                           i1l3313 14AD                             i1l3305 149E  
                           i1l3315 14B4                             i1l3307 14A0  
                           i1l3317 14B6                             i1l3309 14A5  
                           i1l3319 14BA                             u390_20 14B4  
                           u390_21 14B3                             u386_20 148D  
                           u386_21 148C                             u387_20 149E  
                           u387_21 149D                             u388_20 14A5  
                           u388_21 14A4                             u389_20 14AD  
                           u389_21 14AC                             _TMR2IE 0461  
                           _TMR2IF 0061                             _TMR2ON 0092  
                           _TRISC1 0439                             _TRISC2 043A  
                           _TRISE1 0449                             _TRISE2 044A  
                 __end_of___xxtofl 1800        __end_of_init_digital_keypad 1335  
                           ___flge 16A0            _init_display_controller 14C3  
                        ??___fladd 0028                             ___wmul 1429  
                        ??___awdiv 0077                   ?_power_on_screen 0070  
                        ??___awmod 0077                          ??___flmul 0032  
                        ??___flsub 0077                          ??___fltol 0048  
      __end_of_water_level_display 0AC3         ??_washing_programs_display 0026  
                 ___awdiv@quotient 0022                    ___awmod@divisor 0073  
           ??_set_time_for_program 0073                    ___awmod@counter 0020  
               __size_of__Umul8_16 0029                             saved_w 007E  
                       ___flge@ff1 004C                         ___flge@ff2 0050  
                     ___xxtofl@arg 0026                       ___xxtofl@exp 0025  
                     ___xxtofl@val 0073            __end_of__initialization 0039  
                       ___fltol@f1 0044                     __pcstackCOMMON 0070  
                     __pidataBANK0 07FB                       __pidataBANK1 13BA  
            __size_of_clear_screen 000D               __size_of_init_config 0018  
                     ?_run_program 0070               __size_of_init_timer2 000D  
                       __pbssBANK0 0062                         __pbssBANK1 00C7  
                  run_program@time 0062                 __size_of_init_clcd 000B  
        ??_init_display_controller 0020                         _clcd_print 1454  
                       _clcd_putch 136D                         _clcd_write 139A  
                __end_of__Umul8_16 1429                         __pmaintext 0C0C  
                     _clear_screen 134D                            ?___flge 004C  
                          ?___wmul 0073                         __pintentry 0004  
                          _T2CKPS0 0090                            _T2CKPS1 0091  
      __end_of_read_digital_keypad 07FB                          ?___xxtofl 0073  
                       __stringtab 11A0                    __size_of___flge 00A4  
                          ___fladd 0D70                            ___awdiv 1637  
                          ___awmod 1515                            ___flmul 0439  
                          ___flsub 13DC                            ___fltol 0803  
                  __size_of___wmul 002B   __end_of_washing_programs_display 09A1  
                          __ptext1 09A1                            __ptext2 087F  
                          __ptext3 0AC3                            __ptext4 003D  
                          __ptext5 15CF                            __ptext6 134D  
                          __ptext7 1744                            __ptext8 1429  
                          __ptext9 0803    __end_of_init_display_controller 1515  
                __end_of_init_clcd 1340                       __size_of_isr 003C  
                       ??___xxtofl 0020                   ___awmod@dividend 0075  
                          main@key 00C6               end_of_initialization 0039  
                   _operation_mode 006D                        ?_clcd_print 0020  
                      ?_clcd_putch 0024                        ?_clcd_write 0073  
                       _reset_mode 00CB                       __pstringtext 1000  
                       _rinse_time 0066                        ___fladd@grs 0076  
                       _program_no 007A                      ___xxtofl@sign 0024  
                    clcd_print@str 0020               __size_of_run_program 03FC  
                      ___flmul@grs 0039                     __end_of___flge 1744  
                   __end_of___wmul 1454       __size_of_init_digital_keypad 0006  
    __size_of_set_time_for_program 0149           __size_of_power_on_screen 005F  
     __size_of_water_level_display 0122                start_initialization 000F  
              __size_of_clcd_print 0033                __size_of_clcd_putch 0015  
              __size_of_clcd_write 0020                        __end_of_isr 14C3  
__size_of_washing_programs_display 0122          ?_washing_programs_display 0070  
                         ??___flge 0054                           ??___wmul 0077  
                       init_fetch0 135A                          __Umul8_16 1400  
                      __pdataBANK0 006E                        __pdataBANK1 00A0  
       read_digital_keypad@pre_key 006C                      ??_init_config 0077  
                        ___fladd@a 0024                          ___fladd@b 0020  
                    ??_init_timer2 0073                          ___flmul@a 002E  
                        ___flmul@b 002A                        __pbssCOMMON 0078  
                        ___flsub@a 0044                          ___flsub@b 0048  
                        ___latbits 0002                      __pcstackBANK0 0020  
                    __pcstackBANK1 00C2                  __size_of___xxtofl 00BC  
                        __pnvBANK0 006D                          __pnvBANK1 00CB  
             power_on_screen@i_158 002A                           ?___fladd 0020  
                         ?___awdiv 0073                           ?___awmod 0073  
                         ?___flmul 002A                           ?___flsub 0044  
                         ?___fltol 0044                         ?__Umul8_16 0073  
                        __pstrings 11A0                          _init_clcd 1335  
              __end_of_init_config 139A                  ??_power_on_screen 0026  
     __size_of_read_digital_keypad 0061                __end_of_init_timer2 134D  
         ?_init_display_controller 0070                  interrupt_function 0004  
                   ___wmul@product 0020                       ??_clcd_print 0077  
                     ??_clcd_putch 0078                       ??_clcd_write 0074  
                  _water_level_arr 00B8                          _wash_time 0068  
                        _spin_time 00C9                        __stringbase 11B2  
                        main@j_148 00C4                  ___wmul@multiplier 0073  
               __end_of_clcd_print 1487                 __end_of_clcd_putch 1382  
               __end_of_clcd_write 13BA                         ?_init_clcd 0070  
              _init_digital_keypad 132F                _water_level_display 09A1  
                      ??__Umul8_16 0075                   __size_of___fladd 0290  
                 __size_of___awdiv 0069                   __size_of___awmod 005B  
             ?_init_digital_keypad 0070                   __size_of___flmul 0361  
                 __size_of___flsub 0024                   __size_of___fltol 007C  
               __end_of__stringtab 11B2                        _init_config 1382  
             ?_water_level_display 0070                           ___xxtofl 1744  
                      _init_timer2 1340                      ??_run_program 0058  
                         __ptext10 13DC                           __ptext11 0D70  
                         __ptext20 1454                           __ptext12 0439  
                         __ptext21 1382                           __ptext13 1400  
                         __ptext22 1340                           __ptext14 16A0  
                         __ptext23 132F                           __ptext15 1515  
                         __ptext24 1335                           __ptext16 1637  
                         __ptext25 14C3                           __ptext17 079A  
                         __ptext26 139A                           __ptext18 1570  
                         __ptext27 1487                           __ptext19 136D  
                    __size_of_main 0164       __end_of_set_time_for_program 0C0C  
          read_digital_keypad@mode 0074            read_digital_keypad@once 006E  
                    ?_clear_screen 0070              ??_init_digital_keypad 0073  
                _door_status_check 15CF                 ?_door_status_check 0070  
            ??_water_level_display 0026                           isr@count 00C7  
              ??_door_status_check 0023                           init_ram0 135E  
                      ??_init_clcd 0077                           intlevel1 0000  
              __end_of_run_program 0439                          stringcode 11AA  
                   ??_clear_screen 0077          __end_of_door_status_check 1637  
              _read_digital_keypad 079A                  _water_level_index 0079  
           __Umul8_16@multiplicand 0073                    _power_on_screen 1570  
                     _washing_prog 00A0                           stringtab 11A0  
         _washing_programs_display 087F                      ___fladd@signs 0073  
             ?_read_digital_keypad 0070                   power_on_screen@i 0029  
                     ___fladd@aexp 0074                       ___fladd@bexp 0075  
             __Umul8_16@multiplier 0024                  __Umul8_16@product 0020  
